# SymbolsHelper-Confirmed: 6.4.0 amd64
libQt6ScxmlQml.so.6 libqt6scxmlqml6 #MINVER#
* Build-Depends-Package: qt6-scxml-dev
 _Z26qml_register_types_QtScxmlv@Base 6.2.1
 _ZGVZN9QMetaType21registerConverterImplI5QListI11QScxmlEventE9QIterableI13QMetaSequenceEEEbSt8functionIFbPKvPvEES_S_E10unregister@Base 6.4.0
 _ZGVZN9QMetaType23registerMutableViewImplI5QListI11QScxmlEventE9QIterableI13QMetaSequenceEEEbSt8functionIFbPvS8_EES_S_E10unregister@Base 6.4.0
 _ZN13QMetaSequence12MetaSequenceI5QListI11QScxmlEventEE5valueE@Base 6.4.0
 _ZN18QScxmlEventForeign16staticMetaObjectE@Base 6.2.1
 _ZN21QScxmlEventConnection10classBeginEv@Base 6.2.1
 _ZN21QScxmlEventConnection11qt_metacallEN11QMetaObject4CallEiPPv@Base 6.2.1
 _ZN21QScxmlEventConnection11qt_metacastEPKc@Base 6.2.1
 _ZN21QScxmlEventConnection13eventsChangedEv@Base 6.2.1
 _ZN21QScxmlEventConnection14bindableEventsEv@Base 6.2.1
 _ZN21QScxmlEventConnection15setStateMachineEP18QScxmlStateMachine@Base 6.2.1
 _ZN21QScxmlEventConnection16staticMetaObjectE@Base 6.2.1
 _ZN21QScxmlEventConnection17componentCompleteEv@Base 6.2.1
 _ZN21QScxmlEventConnection19stateMachineChangedEv@Base 6.2.1
 _ZN21QScxmlEventConnection20bindableStateMachineEv@Base 6.2.1
 _ZN21QScxmlEventConnection8occurredERK11QScxmlEvent@Base 6.2.1
 _ZN21QScxmlEventConnection9doConnectEv@Base 6.2.1
 _ZN21QScxmlEventConnection9setEventsERK5QListI7QStringE@Base 6.2.1
 _ZN21QScxmlEventConnectionC1EP7QObject@Base 6.2.1
 _ZN21QScxmlEventConnectionC2EP7QObject@Base 6.2.1
 _ZN21QScxmlInvokedServices10classBeginEv@Base 6.2.1
 _ZN21QScxmlInvokedServices11qmlChildrenEv@Base 6.2.1
 _ZN21QScxmlInvokedServices11qt_metacallEN11QMetaObject4CallEiPPv@Base 6.2.1
 _ZN21QScxmlInvokedServices11qt_metacastEPKc@Base 6.2.1
 _ZN21QScxmlInvokedServices15childrenChangedEv@Base 6.2.1
 _ZN21QScxmlInvokedServices15setStateMachineEP18QScxmlStateMachine@Base 6.2.1
 _ZN21QScxmlInvokedServices16bindableChildrenEv@Base 6.2.1
 _ZN21QScxmlInvokedServices16staticMetaObjectE@Base 6.2.1
 _ZN21QScxmlInvokedServices17componentCompleteEv@Base 6.2.1
 _ZN21QScxmlInvokedServices19stateMachineChangedEv@Base 6.2.1
 _ZN21QScxmlInvokedServices20bindableStateMachineEv@Base 6.2.1
 _ZN21QScxmlInvokedServices8childrenEv@Base 6.2.1
 _ZN21QScxmlInvokedServicesC1EP7QObject@Base 6.2.1
 _ZN21QScxmlInvokedServicesC2EP7QObject@Base 6.2.1
 _ZN24QScxmlStateMachineLoader11qt_metacallEN11QMetaObject4CallEiPPv@Base 6.2.1
 _ZN24QScxmlStateMachineLoader11qt_metacastEPKc@Base 6.2.1
 _ZN24QScxmlStateMachineLoader12setDataModelEP15QScxmlDataModel@Base 6.2.1
 _ZN24QScxmlStateMachineLoader13sourceChangedEv@Base 6.2.1
 _ZN24QScxmlStateMachineLoader14bindableSourceEv@Base 6.2.1
 _ZN24QScxmlStateMachineLoader15setStateMachineEP18QScxmlStateMachine@Base 6.2.1
 _ZN24QScxmlStateMachineLoader16dataModelChangedEv@Base 6.2.1
 _ZN24QScxmlStateMachineLoader16setInitialValuesERK4QMapI7QString8QVariantE@Base 6.2.1
 _ZN24QScxmlStateMachineLoader16staticMetaObjectE@Base 6.2.1
 _ZN24QScxmlStateMachineLoader17bindableDataModelEv@Base 6.2.1
 _ZN24QScxmlStateMachineLoader19stateMachineChangedEv@Base 6.2.1
 _ZN24QScxmlStateMachineLoader20bindableStateMachineEv@Base 6.2.1
 _ZN24QScxmlStateMachineLoader20initialValuesChangedEv@Base 6.2.1
 _ZN24QScxmlStateMachineLoader21bindableInitialValuesEv@Base 6.2.1
 _ZN24QScxmlStateMachineLoader5parseERK4QUrl@Base 6.2.1
 _ZN24QScxmlStateMachineLoader6sourceEv@Base 6.2.1
 _ZN24QScxmlStateMachineLoader9setSourceERK4QUrl@Base 6.2.1
 _ZN24QScxmlStateMachineLoaderC1EP7QObject@Base 6.2.1
 _ZN24QScxmlStateMachineLoaderC2EP7QObject@Base 6.2.1
 _ZN25QScxmlStateMachineForeign16staticMetaObjectE@Base 6.2.1
 _ZN26QScxmlStateMachineExtended11qt_metacallEN11QMetaObject4CallEiPPv@Base 6.2.1
 _ZN26QScxmlStateMachineExtended11qt_metacastEPKc@Base 6.2.1
 _ZN26QScxmlStateMachineExtended16staticMetaObjectE@Base 6.2.1
 _ZN26QScxmlStateMachineExtended8childrenEv@Base 6.2.1
 _ZN26QScxmlStateMachineExtendedC1EP7QObject@Base 6.2.1
 _ZN26QScxmlStateMachineExtendedC2EP7QObject@Base 6.2.1
 _ZNK21QScxmlEventConnection10metaObjectEv@Base 6.2.1
 _ZNK21QScxmlEventConnection12stateMachineEv@Base 6.2.1
 _ZNK21QScxmlEventConnection6eventsEv@Base 6.2.1
 _ZNK21QScxmlInvokedServices10metaObjectEv@Base 6.2.1
 _ZNK21QScxmlInvokedServices12stateMachineEv@Base 6.2.1
 _ZNK21QScxmlInvokedServices25childrenActualCalculationEv@Base 6.2.1
 _ZNK24QScxmlStateMachineLoader10metaObjectEv@Base 6.2.1
 _ZNK24QScxmlStateMachineLoader12stateMachineEv@Base 6.2.1
 _ZNK24QScxmlStateMachineLoader13initialValuesEv@Base 6.2.1
 _ZNK24QScxmlStateMachineLoader9dataModelEv@Base 6.2.1
 _ZNK26QScxmlStateMachineExtended10metaObjectEv@Base 6.2.1
 _ZTI21QScxmlEventConnection@Base 6.2.1
 _ZTI21QScxmlInvokedServices@Base 6.2.1
 _ZTI24QScxmlStateMachineLoader@Base 6.2.1
 _ZTI26QScxmlStateMachineExtended@Base 6.2.1
 _ZTIZN9QMetaType17registerConverterI5QListI11QScxmlEventE9QIterableI13QMetaSequenceEN9QtPrivate33QSequentialIterableConvertFunctorIS3_EEEEbT1_EUlPKvPvE_@Base 6.4.0
 _ZTIZN9QMetaType19registerMutableViewI5QListI11QScxmlEventE9QIterableI13QMetaSequenceEN9QtPrivate37QSequentialIterableMutableViewFunctorIS3_EEEEbT1_EUlPvSB_E_@Base 6.4.0
 _ZTS21QScxmlEventConnection@Base 6.2.1
 _ZTS21QScxmlInvokedServices@Base 6.2.1
 _ZTS24QScxmlStateMachineLoader@Base 6.2.1
 _ZTS26QScxmlStateMachineExtended@Base 6.2.1
 _ZTSZN9QMetaType17registerConverterI5QListI11QScxmlEventE9QIterableI13QMetaSequenceEN9QtPrivate33QSequentialIterableConvertFunctorIS3_EEEEbT1_EUlPKvPvE_@Base 6.4.0
 _ZTSZN9QMetaType19registerMutableViewI5QListI11QScxmlEventE9QIterableI13QMetaSequenceEN9QtPrivate37QSequentialIterableMutableViewFunctorIS3_EEEEbT1_EUlPvSB_E_@Base 6.4.0
 _ZTV21QScxmlEventConnection@Base 6.2.1
 _ZTV21QScxmlInvokedServices@Base 6.2.1
 _ZTV24QScxmlStateMachineLoader@Base 6.2.1
 _ZTV26QScxmlStateMachineExtended@Base 6.2.1
 (optional=templinst)_ZZN9QMetaType21registerConverterImplI5QListI11QScxmlEventE9QIterableI13QMetaSequenceEEEbSt8functionIFbPKvPvEES_S_E10unregister@Base 6.4.0
 (optional=templinst)_ZZN9QMetaType23registerMutableViewImplI5QListI11QScxmlEventE9QIterableI13QMetaSequenceEEEbSt8functionIFbPvS8_EES_S_E10unregister@Base 6.4.0
 (c++)"non-virtual thunk to QScxmlEventConnection::classBegin()@Base" 6.2.1
 (c++)"non-virtual thunk to QScxmlEventConnection::componentComplete()@Base" 6.2.1
 (c++)"non-virtual thunk to QScxmlInvokedServices::classBegin()@Base" 6.2.1
 (c++)"non-virtual thunk to QScxmlInvokedServices::componentComplete()@Base" 6.2.1
