# SymbolsHelper-Confirmed: 6.2.1 amd64
libQt6StateMachineQml.so.6 libqt6statemachineqml6 #MINVER#
* Build-Depends-Package: qt6-scxml-dev
 _Z37qml_register_types_QtQml_StateMachinev@Base 6.2.1
 _ZN10FinalState11qt_metacallEN11QMetaObject4CallEiPPv@Base 6.2.1
 _ZN10FinalState11qt_metacastEPKc@Base 6.2.1
 _ZN10FinalState15childrenChangedEv@Base 6.2.1
 _ZN10FinalState16staticMetaObjectE@Base 6.2.1
 _ZN10FinalState22childrenContentChangedEv@Base 6.2.1
 _ZN10FinalState8childrenEv@Base 6.2.1
 _ZN10FinalStateC1EP6QState@Base 6.2.1
 _ZN10FinalStateC2EP6QState@Base 6.2.1
 _ZN12StateMachine10setRunningEb@Base 6.2.1
 _ZN12StateMachine11qt_metacallEN11QMetaObject4CallEiPPv@Base 6.2.1
 _ZN12StateMachine11qt_metacastEPKc@Base 6.2.1
 _ZN12StateMachine14checkChildModeEv@Base 6.2.1
 _ZN12StateMachine15childrenChangedEv@Base 6.2.1
 _ZN12StateMachine16staticMetaObjectE@Base 6.2.1
 _ZN12StateMachine17componentCompleteEv@Base 6.2.1
 _ZN12StateMachine17qmlRunningChangedEv@Base 6.2.1
 _ZN12StateMachine22childrenContentChangedEv@Base 6.2.1
 _ZN12StateMachine8childrenEv@Base 6.2.1
 _ZN12StateMachineC1EP7QObject@Base 6.2.1
 _ZN12StateMachineC2EP7QObject@Base 6.2.1
 _ZN13QStateForeign16staticMetaObjectE@Base 6.2.1
 _ZN16SignalTransition11qt_metacallEN11QMetaObject4CallEiPPv@Base 6.2.1
 _ZN16SignalTransition11qt_metacastEPKc@Base 6.2.1
 _ZN16SignalTransition12guardChangedEv@Base 6.2.1
 _ZN16SignalTransition12onTransitionEP6QEvent@Base 6.2.1
 _ZN16SignalTransition13bindableGuardEv@Base 6.2.1
 _ZN16SignalTransition14bindableSignalEv@Base 6.2.1
 _ZN16SignalTransition14invokeYourselfEv@Base 6.2.1
 _ZN16SignalTransition16connectTriggeredEv@Base 6.2.1
 _ZN16SignalTransition16qmlSignalChangedEv@Base 6.2.1
 _ZN16SignalTransition16staticMetaObjectE@Base 6.2.1
 _ZN16SignalTransition6invokeEv@Base 6.2.1
 _ZN16SignalTransition6signalEv@Base 6.2.1
 _ZN16SignalTransition8setGuardERK16QQmlScriptString@Base 6.2.1
 _ZN16SignalTransition9eventTestEP6QEvent@Base 6.2.1
 _ZN16SignalTransition9setSignalERK8QJSValue@Base 6.2.1
 _ZN16SignalTransitionC1EP6QState@Base 6.2.1
 _ZN16SignalTransitionC2EP6QState@Base 6.2.1
 _ZN17TimeoutTransition10setTimeoutEi@Base 6.2.1
 _ZN17TimeoutTransition11qt_metacallEN11QMetaObject4CallEiPPv@Base 6.2.1
 _ZN17TimeoutTransition11qt_metacastEPKc@Base 6.2.1
 _ZN17TimeoutTransition15bindableTimeoutEv@Base 6.2.1
 _ZN17TimeoutTransition16staticMetaObjectE@Base 6.2.1
 _ZN17TimeoutTransition17componentCompleteEv@Base 6.2.1
 _ZN17TimeoutTransitionC1EP6QState@Base 6.2.1
 _ZN17TimeoutTransitionC2EP6QState@Base 6.2.1
 _ZN17TimeoutTransitionD0Ev@Base 6.2.1
 _ZN17TimeoutTransitionD1Ev@Base 6.2.1
 _ZN17TimeoutTransitionD2Ev@Base 6.2.1
 _ZN20QHistoryStateForeign16staticMetaObjectE@Base 6.2.1
 _ZN21QAbstractStateForeign16staticMetaObjectE@Base 6.2.1
 _ZN24QSignalTransitionForeign16staticMetaObjectE@Base 6.2.1
 _ZN5State11qt_metacallEN11QMetaObject4CallEiPPv@Base 6.2.1
 _ZN5State11qt_metacastEPKc@Base 6.2.1
 _ZN5State15childrenChangedEv@Base 6.2.1
 _ZN5State16staticMetaObjectE@Base 6.2.1
 _ZN5State17componentCompleteEv@Base 6.2.1
 _ZN5State22childrenContentChangedEv@Base 6.2.1
 _ZN5State8childrenEv@Base 6.2.1
 _ZN5StateC1EP6QState@Base 6.2.1
 _ZN5StateC2EP6QState@Base 6.2.1
 _ZNK10FinalState10metaObjectEv@Base 6.2.1
 _ZNK10FinalState16bindableChildrenEv@Base 6.2.1
 _ZNK10FinalState25childrenActualCalculationEv@Base 6.2.1
 _ZNK12StateMachine10metaObjectEv@Base 6.2.1
 _ZNK12StateMachine16bindableChildrenEv@Base 6.2.1
 _ZNK12StateMachine25childrenActualCalculationEv@Base 6.2.1
 _ZNK12StateMachine9isRunningEv@Base 6.2.1
 _ZNK16SignalTransition10metaObjectEv@Base 6.2.1
 _ZNK16SignalTransition5guardEv@Base 6.2.1
 _ZNK17TimeoutTransition10metaObjectEv@Base 6.2.1
 _ZNK17TimeoutTransition7timeoutEv@Base 6.2.1
 _ZNK5State10metaObjectEv@Base 6.2.1
 _ZNK5State16bindableChildrenEv@Base 6.2.1
 _ZNK5State25childrenActualCalculationEv@Base 6.2.1
 _ZTI10FinalState@Base 6.2.1
 _ZTI12StateMachine@Base 6.2.1
 _ZTI16QQmlCustomParser@Base 6.2.1
 _ZTI16SignalTransition@Base 6.2.1
 _ZTI17TimeoutTransition@Base 6.2.1
 _ZTI5State@Base 6.2.1
 _ZTS10FinalState@Base 6.2.1
 _ZTS12StateMachine@Base 6.2.1
 _ZTS16QQmlCustomParser@Base 6.2.1
 _ZTS16SignalTransition@Base 6.2.1
 _ZTS17TimeoutTransition@Base 6.2.1
 _ZTS5State@Base 6.2.1
 _ZTV10FinalState@Base 6.2.1
 _ZTV12StateMachine@Base 6.2.1
 _ZTV16QQmlCustomParser@Base 6.2.1
 _ZTV16SignalTransition@Base 6.2.1
 _ZTV17TimeoutTransition@Base 6.2.1
 _ZTV5State@Base 6.2.1
 (optional=templinst)_ZZN9QtPrivate16QMetaTypeForTypeIbE10getCopyCtrEvENUlPKNS_18QMetaTypeInterfaceEPvPKvE_4_FUNES4_S5_S7_@Base 6.2.1
 (optional=templinst)_ZZN9QtPrivate16QMetaTypeForTypeIbE10getMoveCtrEvENUlPKNS_18QMetaTypeInterfaceEPvS5_E_4_FUNES4_S5_S5_@Base 6.2.1
 (optional=templinst)_ZZN9QtPrivate16QMetaTypeForTypeIbE13getDefaultCtrEvENUlPKNS_18QMetaTypeInterfaceEPvE_4_FUNES4_S5_@Base 6.2.1
 (optional=templinst)_ZZN9QtPrivate16QMetaTypeForTypeIiE10getCopyCtrEvENUlPKNS_18QMetaTypeInterfaceEPvPKvE_4_FUNES4_S5_S7_@Base 6.2.1
 (optional=templinst)_ZZN9QtPrivate16QMetaTypeForTypeIiE10getMoveCtrEvENUlPKNS_18QMetaTypeInterfaceEPvS5_E_4_FUNES4_S5_S5_@Base 6.2.1
 (optional=templinst)_ZZN9QtPrivate16QMetaTypeForTypeIiE13getDefaultCtrEvENUlPKNS_18QMetaTypeInterfaceEPvE_4_FUNES4_S5_@Base 6.2.1
 (c++)"non-virtual thunk to State::componentComplete()@Base" 6.2.1
 (c++)"non-virtual thunk to StateMachine::componentComplete()@Base" 6.2.1
 (c++)"non-virtual thunk to TimeoutTransition::componentComplete()@Base" 6.2.1
 (c++)"non-virtual thunk to TimeoutTransition::~TimeoutTransition()@Base" 6.2.1
