# SymbolsHelper-Confirmed: 6.2.1 amd64
libQt6Scxml.so.6 libqt6scxml6 #MINVER#
* Build-Depends-Package: qt6-scxml-dev
 _ZGVZN9QMetaType21registerConverterImplI5QListI11QScxmlErrorE9QIterableI13QMetaSequenceEEEbSt8functionIFbPKvPvEES_S_E10unregister@Base 6.2.1
 _ZGVZN9QMetaType21registerConverterImplI5QListIP22QScxmlInvokableServiceE9QIterableI13QMetaSequenceEEEbSt8functionIFbPKvPvEES_S_E10unregister@Base 6.2.1
 _ZGVZN9QMetaType21registerConverterImplI5QListIiE9QIterableI13QMetaSequenceEEEbSt8functionIFbPKvPvEES_S_E10unregister@Base 6.2.1
 _ZGVZN9QMetaType23registerMutableViewImplI5QListI11QScxmlErrorE9QIterableI13QMetaSequenceEEEbSt8functionIFbPvS8_EES_S_E10unregister@Base 6.2.1
 _ZGVZN9QMetaType23registerMutableViewImplI5QListIP22QScxmlInvokableServiceE9QIterableI13QMetaSequenceEEEbSt8functionIFbPvS9_EES_S_E10unregister@Base 6.2.1
 _ZGVZN9QMetaType23registerMutableViewImplI5QListIiE9QIterableI13QMetaSequenceEEEbSt8functionIFbPvS7_EES_S_E10unregister@Base 6.2.1
 _ZN11QScxmlError16staticMetaObjectE@Base 6.2.1
 _ZN11QScxmlErrorC1ERK7QStringiiS2_@Base 6.2.1
 _ZN11QScxmlErrorC1ERKS_@Base 6.2.1
 _ZN11QScxmlErrorC1Ev@Base 6.2.1
 _ZN11QScxmlErrorC2ERK7QStringiiS2_@Base 6.2.1
 _ZN11QScxmlErrorC2ERKS_@Base 6.2.1
 _ZN11QScxmlErrorC2Ev@Base 6.2.1
 _ZN11QScxmlErrorD1Ev@Base 6.2.1
 _ZN11QScxmlErrorD2Ev@Base 6.2.1
 _ZN11QScxmlErroraSERKS_@Base 6.2.1
 _ZN11QScxmlEvent11setInvokeIdERK7QString@Base 6.2.1
 _ZN11QScxmlEvent12setEventTypeERKNS_9EventTypeE@Base 6.2.1
 _ZN11QScxmlEvent13setOriginTypeERK7QString@Base 6.2.1
 _ZN11QScxmlEvent15setErrorMessageERK7QString@Base 6.2.1
 _ZN11QScxmlEvent16staticMetaObjectE@Base 6.2.1
 _ZN11QScxmlEvent5clearEv@Base 6.2.1
 _ZN11QScxmlEvent7setDataERK8QVariant@Base 6.2.1
 _ZN11QScxmlEvent7setNameERK7QString@Base 6.2.1
 _ZN11QScxmlEvent8setDelayEi@Base 6.2.1
 _ZN11QScxmlEvent9setOriginERK7QString@Base 6.2.1
 _ZN11QScxmlEvent9setSendIdERK7QString@Base 6.2.1
 _ZN11QScxmlEventC1ERKS_@Base 6.2.1
 _ZN11QScxmlEventC1Ev@Base 6.2.1
 _ZN11QScxmlEventC2ERKS_@Base 6.2.1
 _ZN11QScxmlEventC2Ev@Base 6.2.1
 _ZN11QScxmlEventD1Ev@Base 6.2.1
 _ZN11QScxmlEventD2Ev@Base 6.2.1
 _ZN11QScxmlEventaSERKS_@Base 6.2.1
 _ZN13DocumentModel11NodeVisitorD0Ev@Base 6.2.1
 _ZN13DocumentModel11NodeVisitorD1Ev@Base 6.2.1
 _ZN13DocumentModel11NodeVisitorD2Ev@Base 6.2.1
 _ZN13QMetaSequence12MetaSequenceI5QListI11QScxmlErrorEE5valueE@Base 6.2.1
 _ZN13QMetaSequence12MetaSequenceI5QListIP22QScxmlInvokableServiceEE5valueE@Base 6.2.1
 _ZN13QMetaSequence12MetaSequenceI5QListIiEE5valueE@Base 6.2.1
 _ZN14QScxmlCompiler11setFileNameERK7QString@Base 6.2.1
 _ZN14QScxmlCompiler6LoaderC1Ev@Base 6.2.1
 _ZN14QScxmlCompiler6LoaderC2Ev@Base 6.2.1
 _ZN14QScxmlCompiler6LoaderD0Ev@Base 6.2.1
 _ZN14QScxmlCompiler6LoaderD1Ev@Base 6.2.1
 _ZN14QScxmlCompiler6LoaderD2Ev@Base 6.2.1
 _ZN14QScxmlCompiler7compileEv@Base 6.2.1
 _ZN14QScxmlCompiler9setLoaderEPNS_6LoaderE@Base 6.2.1
 _ZN14QScxmlCompilerC1EP16QXmlStreamReader@Base 6.2.1
 _ZN14QScxmlCompilerC2EP16QXmlStreamReader@Base 6.2.1
 _ZN14QScxmlCompilerD1Ev@Base 6.2.1
 _ZN14QScxmlCompilerD2Ev@Base 6.2.1
 _ZN14QScxmlInternal18GeneratedTableData5buildEPN13DocumentModel13ScxmlDocumentEPS0_PNS0_12MetaDataInfoEPNS0_13DataModelInfoESt8functionIFiRKN23QScxmlExecutableContent10InvokeInfoERK5QListIiERKSE_INSA_13ParameterInfoEE14QSharedPointerIS2_EEE@Base 6.2.1
 _ZN14QScxmlInternal18GeneratedTableData8toStringEPKi@Base 6.2.1
 _ZN15QScxmlDataModel11qt_metacallEN11QMetaObject4CallEiPPv@Base 6.2.1
 _ZN15QScxmlDataModel11qt_metacastEPKc@Base 6.2.1
 _ZN15QScxmlDataModel15ForeachLoopBodyC1Ev@Base 6.2.1
 _ZN15QScxmlDataModel15ForeachLoopBodyC2Ev@Base 6.2.1
 _ZN15QScxmlDataModel15ForeachLoopBodyD0Ev@Base 6.2.1
 _ZN15QScxmlDataModel15ForeachLoopBodyD1Ev@Base 6.2.1
 _ZN15QScxmlDataModel15ForeachLoopBodyD2Ev@Base 6.2.1
 _ZN15QScxmlDataModel15setStateMachineEP18QScxmlStateMachine@Base 6.2.1
 _ZN15QScxmlDataModel16staticMetaObjectE@Base 6.2.1
 _ZN15QScxmlDataModel19stateMachineChangedEP18QScxmlStateMachine@Base 6.2.1
 _ZN15QScxmlDataModel20bindableStateMachineEv@Base 6.2.1
 _ZN15QScxmlDataModel20createScxmlDataModelERK7QString@Base 6.2.1
 _ZN15QScxmlDataModelC1EP7QObject@Base 6.2.1
 _ZN15QScxmlDataModelC1ER22QScxmlDataModelPrivateP7QObject@Base 6.2.1
 _ZN15QScxmlDataModelC2EP7QObject@Base 6.2.1
 _ZN15QScxmlDataModelC2ER22QScxmlDataModelPrivateP7QObject@Base 6.2.1
 _ZN15QScxmlTableDataD0Ev@Base 6.2.1
 _ZN15QScxmlTableDataD1Ev@Base 6.2.1
 _ZN15QScxmlTableDataD2Ev@Base 6.2.1
 _ZN18QScxmlCppDataModel11qt_metacallEN11QMetaObject4CallEiPPv@Base 6.2.1
 _ZN18QScxmlCppDataModel11qt_metacastEPKc@Base 6.2.1
 _ZN18QScxmlCppDataModel13setScxmlEventERK11QScxmlEvent@Base 6.2.1
 _ZN18QScxmlCppDataModel15evaluateForeachEiPbPN15QScxmlDataModel15ForeachLoopBodyE@Base 6.2.1
 _ZN18QScxmlCppDataModel16setScxmlPropertyERK7QStringRK8QVariantS2_@Base 6.2.1
 _ZN18QScxmlCppDataModel16staticMetaObjectE@Base 6.2.1
 _ZN18QScxmlCppDataModel18evaluateAssignmentEiPb@Base 6.2.1
 _ZN18QScxmlCppDataModel22evaluateInitializationEiPb@Base 6.2.1
 _ZN18QScxmlCppDataModel5setupERK4QMapI7QString8QVariantE@Base 6.2.1
 _ZN18QScxmlCppDataModelC1EP7QObject@Base 6.2.1
 _ZN18QScxmlCppDataModelC2EP7QObject@Base 6.2.1
 _ZN18QScxmlScxmlService11qt_metacallEN11QMetaObject4CallEiPPv@Base 6.2.1
 _ZN18QScxmlScxmlService11qt_metacastEPKc@Base 6.2.1
 _ZN18QScxmlScxmlService16staticMetaObjectE@Base 6.2.1
 _ZN18QScxmlScxmlService5startEv@Base 6.2.1
 _ZN18QScxmlScxmlService9postEventEP11QScxmlEvent@Base 6.2.1
 _ZN18QScxmlScxmlServiceC1EP18QScxmlStateMachineS1_P29QScxmlInvokableServiceFactory@Base 6.2.1
 _ZN18QScxmlScxmlServiceC2EP18QScxmlStateMachineS1_P29QScxmlInvokableServiceFactory@Base 6.2.1
 _ZN18QScxmlScxmlServiceD0Ev@Base 6.2.1
 _ZN18QScxmlScxmlServiceD1Ev@Base 6.2.1
 _ZN18QScxmlScxmlServiceD2Ev@Base 6.2.1
 _ZN18QScxmlStateMachine10setRunningEb@Base 6.2.1
 _ZN18QScxmlStateMachine11qt_metacallEN11QMetaObject4CallEiPPv@Base 6.2.1
 _ZN18QScxmlStateMachine11qt_metacastEPKc@Base 6.2.1
 _ZN18QScxmlStateMachine11submitEventEP11QScxmlEvent@Base 6.2.1
 _ZN18QScxmlStateMachine11submitEventERK7QString@Base 6.2.1
 _ZN18QScxmlStateMachine11submitEventERK7QStringRK8QVariant@Base 6.2.1
 _ZN18QScxmlStateMachine12setDataModelEP15QScxmlDataModel@Base 6.2.1
 _ZN18QScxmlStateMachine12setTableDataEP15QScxmlTableData@Base 6.2.1
 _ZN18QScxmlStateMachine13initialValuesEv@Base 6.2.1
 _ZN18QScxmlStateMachine13loaderChangedEPN14QScxmlCompiler6LoaderE@Base 6.2.1
 _ZN18QScxmlStateMachine14bindableLoaderEv@Base 6.2.1
 _ZN18QScxmlStateMachine14connectToEventERK7QStringPK7QObjectPKcN2Qt14ConnectionTypeE@Base 6.2.1
 _ZN18QScxmlStateMachine14connectToStateERK7QStringPK7QObjectPKcN2Qt14ConnectionTypeE@Base 6.2.1
 _ZN18QScxmlStateMachine14runningChangedEb@Base 6.2.1
 _ZN18QScxmlStateMachine16dataModelChangedEP15QScxmlDataModel@Base 6.2.1
 _ZN18QScxmlStateMachine16setInitialValuesERK4QMapI7QString8QVariantE@Base 6.2.1
 _ZN18QScxmlStateMachine16staticMetaObjectE@Base 6.2.1
 _ZN18QScxmlStateMachine16tableDataChangedEP15QScxmlTableData@Base 6.2.1
 _ZN18QScxmlStateMachine17bindableDataModelEv@Base 6.2.1
 _ZN18QScxmlStateMachine17bindableTableDataEv@Base 6.2.1
 _ZN18QScxmlStateMachine18cancelDelayedEventERK7QString@Base 6.2.1
 _ZN18QScxmlStateMachine18connectToEventImplERK7QStringPK7QObjectPPvPN9QtPrivate15QSlotObjectBaseEN2Qt14ConnectionTypeE@Base 6.2.1
 _ZN18QScxmlStateMachine18connectToStateImplERK7QStringPK7QObjectPPvPN9QtPrivate15QSlotObjectBaseEN2Qt14ConnectionTypeE@Base 6.2.1
 _ZN18QScxmlStateMachine18initializedChangedEb@Base 6.2.1
 _ZN18QScxmlStateMachine18reachedStableStateEv@Base 6.2.1
 _ZN18QScxmlStateMachine20initialValuesChangedERK4QMapI7QString8QVariantE@Base 6.2.1
 _ZN18QScxmlStateMachine21bindableInitialValuesEv@Base 6.2.1
 _ZN18QScxmlStateMachine22invokedServicesChangedERK5QListIP22QScxmlInvokableServiceE@Base 6.2.1
 _ZN18QScxmlStateMachine23bindableInvokedServicesEv@Base 6.2.1
 _ZN18QScxmlStateMachine3logERK7QStringS2_@Base 6.2.1
 _ZN18QScxmlStateMachine4initEv@Base 6.2.1
 _ZN18QScxmlStateMachine4stopEv@Base 6.2.1
 _ZN18QScxmlStateMachine5startEv@Base 6.2.1
 _ZN18QScxmlStateMachine8finishedEv@Base 6.2.1
 _ZN18QScxmlStateMachine8fromDataEP9QIODeviceRK7QString@Base 6.2.1
 _ZN18QScxmlStateMachine8fromFileERK7QString@Base 6.2.1
 _ZN18QScxmlStateMachine9setLoaderEPN14QScxmlCompiler6LoaderE@Base 6.2.1
 _ZN18QScxmlStateMachineC1EPK11QMetaObjectP7QObject@Base 6.2.1
 _ZN18QScxmlStateMachineC1ER25QScxmlStateMachinePrivateP7QObject@Base 6.2.1
 _ZN18QScxmlStateMachineC2EPK11QMetaObjectP7QObject@Base 6.2.1
 _ZN18QScxmlStateMachineC2ER25QScxmlStateMachinePrivateP7QObject@Base 6.2.1
 _ZN19QScxmlNullDataModel11qt_metacallEN11QMetaObject4CallEiPPv@Base 6.2.1
 _ZN19QScxmlNullDataModel11qt_metacastEPKc@Base 6.2.1
 _ZN19QScxmlNullDataModel13setScxmlEventERK11QScxmlEvent@Base 6.2.1
 _ZN19QScxmlNullDataModel14evaluateToBoolEiPb@Base 6.2.1
 _ZN19QScxmlNullDataModel14evaluateToVoidEiPb@Base 6.2.1
 _ZN19QScxmlNullDataModel15evaluateForeachEiPbPN15QScxmlDataModel15ForeachLoopBodyE@Base 6.2.1
 _ZN19QScxmlNullDataModel16evaluateToStringEiPb@Base 6.2.1
 _ZN19QScxmlNullDataModel16setScxmlPropertyERK7QStringRK8QVariantS2_@Base 6.2.1
 _ZN19QScxmlNullDataModel16staticMetaObjectE@Base 6.2.1
 _ZN19QScxmlNullDataModel17evaluateToVariantEiPb@Base 6.2.1
 _ZN19QScxmlNullDataModel18evaluateAssignmentEiPb@Base 6.2.1
 _ZN19QScxmlNullDataModel22evaluateInitializationEiPb@Base 6.2.1
 _ZN19QScxmlNullDataModel5setupERK4QMapI7QString8QVariantE@Base 6.2.1
 _ZN19QScxmlNullDataModelC1EP7QObject@Base 6.2.1
 _ZN19QScxmlNullDataModelC2EP7QObject@Base 6.2.1
 _ZN19QScxmlNullDataModelD0Ev@Base 6.2.1
 _ZN19QScxmlNullDataModelD1Ev@Base 6.2.1
 _ZN19QScxmlNullDataModelD2Ev@Base 6.2.1
 _ZN21QScxmlCompilerPrivate11ParserState10validChildENS0_4KindES1_@Base 6.2.1
 _ZN21QScxmlCompilerPrivate11ParserState12collectCharsEv@Base 6.2.1
 _ZN21QScxmlCompilerPrivate11ParserState18optionalAttributesENS0_4KindE@Base 6.2.1
 _ZN21QScxmlCompilerPrivate11ParserState18requiredAttributesENS0_4KindE@Base 6.2.1
 _ZN21QScxmlCompilerPrivate11ParserState19isExecutableContentENS0_4KindE@Base 6.2.1
 _ZN21QScxmlCompilerPrivate11ParserState21nameToParserStateKindE11QStringView@Base 6.2.1
 _ZN21QScxmlCompilerPrivate11ParserStateC1ENS0_4KindE@Base 6.2.1
 _ZN21QScxmlCompilerPrivate11ParserStateC2ENS0_4KindE@Base 6.2.1
 _ZN21QScxmlCompilerPrivate11readElementEv@Base 6.2.1
 _ZN21QScxmlCompilerPrivate11setFileNameERK7QString@Base 6.2.1
 _ZN21QScxmlCompilerPrivate12readDocumentEv@Base 6.2.1
 _ZN21QScxmlCompilerPrivate13DefaultLoader4loadERK7QStringS3_P5QListIS1_E@Base 6.2.1
 _ZN21QScxmlCompilerPrivate13DefaultLoaderC1Ev@Base 6.2.1
 _ZN21QScxmlCompilerPrivate13DefaultLoaderC2Ev@Base 6.2.1
 _ZN21QScxmlCompilerPrivate13resetDocumentEv@Base 6.2.1
 _ZN21QScxmlCompilerPrivate14currentStateUpEv@Base 6.2.1
 _ZN21QScxmlCompilerPrivate14verifyDocumentEv@Base 6.2.1
 _ZN21QScxmlCompilerPrivate15checkAttributesERK20QXmlStreamAttributesNS_11ParserState4KindE@Base 6.2.1
 _ZN21QScxmlCompilerPrivate15checkAttributesERK20QXmlStreamAttributesRK5QListI7QStringES7_@Base 6.2.1
 _ZN21QScxmlCompilerPrivate15parseSubElementEPN13DocumentModel6InvokeEP16QXmlStreamReaderRK7QString@Base 6.2.1
 _ZN21QScxmlCompilerPrivate16flushInstructionEv@Base 6.2.1
 _ZN21QScxmlCompilerPrivate16parseSubDocumentEPN13DocumentModel6InvokeEP16QXmlStreamReaderRK7QString@Base 6.2.1
 _ZN21QScxmlCompilerPrivate16preReadElementIfEv@Base 6.2.1
 _ZN21QScxmlCompilerPrivate17postReadElementIfEv@Base 6.2.1
 _ZN21QScxmlCompilerPrivate17preReadElementLogEv@Base 6.2.1
 _ZN21QScxmlCompilerPrivate18postReadElementLogEv@Base 6.2.1
 _ZN21QScxmlCompilerPrivate18preReadElementDataEv@Base 6.2.1
 _ZN21QScxmlCompilerPrivate18preReadElementElseEv@Base 6.2.1
 _ZN21QScxmlCompilerPrivate18preReadElementSendEv@Base 6.2.1
 _ZN21QScxmlCompilerPrivate19postReadElementDataEv@Base 6.2.1
 _ZN21QScxmlCompilerPrivate19postReadElementElseEv@Base 6.2.1
 _ZN21QScxmlCompilerPrivate19postReadElementSendEv@Base 6.2.1
 _ZN21QScxmlCompilerPrivate19preReadElementFinalEv@Base 6.2.1
 _ZN21QScxmlCompilerPrivate19preReadElementParamEv@Base 6.2.1
 _ZN21QScxmlCompilerPrivate19preReadElementRaiseEv@Base 6.2.1
 _ZN21QScxmlCompilerPrivate19preReadElementScxmlEv@Base 6.2.1
 _ZN21QScxmlCompilerPrivate19preReadElementStateEv@Base 6.2.1
 _ZN21QScxmlCompilerPrivate20postReadElementFinalEv@Base 6.2.1
 _ZN21QScxmlCompilerPrivate20postReadElementParamEv@Base 6.2.1
 _ZN21QScxmlCompilerPrivate20postReadElementRaiseEv@Base 6.2.1
 _ZN21QScxmlCompilerPrivate20postReadElementScxmlEv@Base 6.2.1
 _ZN21QScxmlCompilerPrivate20postReadElementStateEv@Base 6.2.1
 _ZN21QScxmlCompilerPrivate20preReadElementAssignEv@Base 6.2.1
 _ZN21QScxmlCompilerPrivate20preReadElementCancelEv@Base 6.2.1
 _ZN21QScxmlCompilerPrivate20preReadElementElseIfEv@Base 6.2.1
 _ZN21QScxmlCompilerPrivate20preReadElementInvokeEv@Base 6.2.1
 _ZN21QScxmlCompilerPrivate20preReadElementOnExitEv@Base 6.2.1
 _ZN21QScxmlCompilerPrivate20preReadElementScriptEv@Base 6.2.1
 _ZN21QScxmlCompilerPrivate21postReadElementAssignEv@Base 6.2.1
 _ZN21QScxmlCompilerPrivate21postReadElementCancelEv@Base 6.2.1
 _ZN21QScxmlCompilerPrivate21postReadElementElseIfEv@Base 6.2.1
 _ZN21QScxmlCompilerPrivate21postReadElementInvokeEv@Base 6.2.1
 _ZN21QScxmlCompilerPrivate21postReadElementOnExitEv@Base 6.2.1
 _ZN21QScxmlCompilerPrivate21postReadElementScriptEv@Base 6.2.1
 _ZN21QScxmlCompilerPrivate21preReadElementContentEv@Base 6.2.1
 _ZN21QScxmlCompilerPrivate21preReadElementForeachEv@Base 6.2.1
 _ZN21QScxmlCompilerPrivate21preReadElementHistoryEv@Base 6.2.1
 _ZN21QScxmlCompilerPrivate21preReadElementInitialEv@Base 6.2.1
 _ZN21QScxmlCompilerPrivate21preReadElementOnEntryEv@Base 6.2.1
 _ZN21QScxmlCompilerPrivate22postReadElementContentEv@Base 6.2.1
 _ZN21QScxmlCompilerPrivate22postReadElementForeachEv@Base 6.2.1
 _ZN21QScxmlCompilerPrivate22postReadElementHistoryEv@Base 6.2.1
 _ZN21QScxmlCompilerPrivate22postReadElementInitialEv@Base 6.2.1
 _ZN21QScxmlCompilerPrivate22postReadElementOnEntryEv@Base 6.2.1
 _ZN21QScxmlCompilerPrivate22preReadElementDoneDataEv@Base 6.2.1
 _ZN21QScxmlCompilerPrivate22preReadElementFinalizeEv@Base 6.2.1
 _ZN21QScxmlCompilerPrivate22preReadElementParallelEv@Base 6.2.1
 _ZN21QScxmlCompilerPrivate23postReadElementDoneDataEv@Base 6.2.1
 _ZN21QScxmlCompilerPrivate23postReadElementFinalizeEv@Base 6.2.1
 _ZN21QScxmlCompilerPrivate23postReadElementParallelEv@Base 6.2.1
 _ZN21QScxmlCompilerPrivate23preReadElementDataModelEv@Base 6.2.1
 _ZN21QScxmlCompilerPrivate24postReadElementDataModelEv@Base 6.2.1
 _ZN21QScxmlCompilerPrivate24preReadElementTransitionEv@Base 6.2.1
 _ZN21QScxmlCompilerPrivate25postReadElementTransitionEv@Base 6.2.1
 _ZN21QScxmlCompilerPrivate3getEP14QScxmlCompiler@Base 6.2.1
 _ZN21QScxmlCompilerPrivate4loadERK7QStringPb@Base 6.2.1
 _ZN21QScxmlCompilerPrivate6lastIfEv@Base 6.2.1
 _ZN21QScxmlCompilerPrivate7currentEv@Base 6.2.1
 _ZN21QScxmlCompilerPrivate7maybeIdERK20QXmlStreamAttributesP7QString@Base 6.2.1
 _ZN21QScxmlCompilerPrivate8addErrorERK7QString@Base 6.2.1
 _ZN21QScxmlCompilerPrivate8addErrorERKN13DocumentModel11XmlLocationERK7QString@Base 6.2.1
 _ZN21QScxmlCompilerPrivate8previousEv@Base 6.2.1
 _ZN21QScxmlCompilerPrivate9setLoaderEPN14QScxmlCompiler6LoaderE@Base 6.2.1
 _ZN21QScxmlCompilerPrivateC1EP16QXmlStreamReader@Base 6.2.1
 _ZN21QScxmlCompilerPrivateC2EP16QXmlStreamReader@Base 6.2.1
 _ZN21QScxmlDataModelPlugin11qt_metacallEN11QMetaObject4CallEiPPv@Base 6.2.1
 _ZN21QScxmlDataModelPlugin11qt_metacastEPKc@Base 6.2.1
 _ZN21QScxmlDataModelPlugin16staticMetaObjectE@Base 6.2.1
 _ZN22QScxmlInvokableService11qt_metacallEN11QMetaObject4CallEiPPv@Base 6.2.1
 _ZN22QScxmlInvokableService11qt_metacastEPKc@Base 6.2.1
 _ZN22QScxmlInvokableService16staticMetaObjectE@Base 6.2.1
 _ZN22QScxmlInvokableServiceC1EP18QScxmlStateMachineP29QScxmlInvokableServiceFactory@Base 6.2.1
 _ZN22QScxmlInvokableServiceC2EP18QScxmlStateMachineP29QScxmlInvokableServiceFactory@Base 6.2.1
 _ZN22QScxmlStateMachineInfo11qt_metacallEN11QMetaObject4CallEiPPv@Base 6.2.1
 _ZN22QScxmlStateMachineInfo11qt_metacastEPKc@Base 6.2.1
 _ZN22QScxmlStateMachineInfo12statesExitedERK5QListIiE@Base 6.2.1
 _ZN22QScxmlStateMachineInfo13statesEnteredERK5QListIiE@Base 6.2.1
 _ZN22QScxmlStateMachineInfo16staticMetaObjectE@Base 6.2.1
 _ZN22QScxmlStateMachineInfo20transitionsTriggeredERK5QListIiE@Base 6.2.1
 _ZN22QScxmlStateMachineInfoC1EP18QScxmlStateMachine@Base 6.2.1
 _ZN22QScxmlStateMachineInfoC2EP18QScxmlStateMachine@Base 6.2.1
 _ZN25QScxmlStateMachinePrivate10addServiceEi@Base 6.2.1
 _ZN25QScxmlStateMachinePrivate10exitStatesERKNS_10OrderedSetE@Base 6.2.1
 _ZN25QScxmlStateMachinePrivate10parserDataEv@Base 6.2.1
 _ZN25QScxmlStateMachinePrivate10resetEventEv@Base 6.2.1
 _ZN25QScxmlStateMachinePrivate10routeEventEP11QScxmlEvent@Base 6.2.1
 _ZN25QScxmlStateMachinePrivate11enterStatesERKNS_10OrderedSetE@Base 6.2.1
 _ZN25QScxmlStateMachinePrivate11submitErrorERK7QStringS2_S2_@Base 6.2.1
 _ZN25QScxmlStateMachinePrivate13processEventsEv@Base 6.2.1
 _ZN25QScxmlStateMachinePrivate13removeServiceEi@Base 6.2.1
 _ZN25QScxmlStateMachinePrivate14serviceFactoryEi@Base 6.2.1
 _ZN25QScxmlStateMachinePrivate15emitStateActiveEib@Base 6.2.1
 _ZN25QScxmlStateMachinePrivate15exitInterpreterEv@Base 6.2.1
 _ZN25QScxmlStateMachinePrivate15returnDoneEventEi@Base 6.2.1
 _ZN25QScxmlStateMachinePrivate15updateMetaCacheEv@Base 6.2.1
 _ZN25QScxmlStateMachinePrivate17generateSessionIdERK7QString@Base 6.2.1
 _ZN25QScxmlStateMachinePrivate18m_sessionIdCounterE@Base 6.2.1
 _ZN25QScxmlStateMachinePrivate18submitDelayedEventEP11QScxmlEvent@Base 6.2.1
 _ZN25QScxmlStateMachinePrivate19executeInitialSetupEv@Base 6.2.1
 _ZN25QScxmlStateMachinePrivate24executeTransitionContentERKNS_10OrderedSetE@Base 6.2.1
 _ZN25QScxmlStateMachinePrivate26emitInvokedServicesChangedEv@Base 6.2.1
 _ZN25QScxmlStateMachinePrivate5pauseEv@Base 6.2.1
 _ZN25QScxmlStateMachinePrivate5startEv@Base 6.2.1
 _ZN25QScxmlStateMachinePrivate6attachEP22QScxmlStateMachineInfo@Base 6.2.1
 _ZN25QScxmlStateMachinePrivate8setEventEP11QScxmlEvent@Base 6.2.1
 _ZN25QScxmlStateMachinePrivate9microstepERKNS_10OrderedSetE@Base 6.2.1
 _ZN25QScxmlStateMachinePrivate9postEventEP11QScxmlEvent@Base 6.2.1
 _ZN25QScxmlStateMachinePrivateC1EPK11QMetaObject@Base 6.2.1
 _ZN25QScxmlStateMachinePrivateC2EPK11QMetaObject@Base 6.2.1
 _ZN25QScxmlStateMachinePrivateD0Ev@Base 6.2.1
 _ZN25QScxmlStateMachinePrivateD1Ev@Base 6.2.1
 _ZN25QScxmlStateMachinePrivateD2Ev@Base 6.2.1
 _ZN29QScxmlInvokableServiceFactory11qt_metacallEN11QMetaObject4CallEiPPv@Base 6.2.1
 _ZN29QScxmlInvokableServiceFactory11qt_metacastEPKc@Base 6.2.1
 _ZN29QScxmlInvokableServiceFactory16staticMetaObjectE@Base 6.2.1
 _ZN29QScxmlInvokableServiceFactoryC1ER36QScxmlInvokableServiceFactoryPrivateP7QObject@Base 6.2.1
 _ZN29QScxmlInvokableServiceFactoryC1ERKN23QScxmlExecutableContent10InvokeInfoERK5QListIiERKS4_INS0_13ParameterInfoEEP7QObject@Base 6.2.1
 _ZN29QScxmlInvokableServiceFactoryC2ER36QScxmlInvokableServiceFactoryPrivateP7QObject@Base 6.2.1
 _ZN29QScxmlInvokableServiceFactoryC2ERKN23QScxmlExecutableContent10InvokeInfoERK5QListIiERKS4_INS0_13ParameterInfoEEP7QObject@Base 6.2.1
 _ZN31QScxmlStaticScxmlServiceFactory11qt_metacallEN11QMetaObject4CallEiPPv@Base 6.2.1
 _ZN31QScxmlStaticScxmlServiceFactory11qt_metacastEPKc@Base 6.2.1
 _ZN31QScxmlStaticScxmlServiceFactory16staticMetaObjectE@Base 6.2.1
 _ZN31QScxmlStaticScxmlServiceFactory6invokeEP18QScxmlStateMachine@Base 6.2.1
 _ZN31QScxmlStaticScxmlServiceFactoryC1EPK11QMetaObjectRKN23QScxmlExecutableContent10InvokeInfoERK5QListIiERKS7_INS3_13ParameterInfoEEP7QObject@Base 6.2.1
 _ZN31QScxmlStaticScxmlServiceFactoryC2EPK11QMetaObjectRKN23QScxmlExecutableContent10InvokeInfoERK5QListIiERKS7_INS3_13ParameterInfoEEP7QObject@Base 6.2.1
 _ZN32QScxmlDynamicScxmlServiceFactory11qt_metacallEN11QMetaObject4CallEiPPv@Base 6.2.1
 _ZN32QScxmlDynamicScxmlServiceFactory11qt_metacastEPKc@Base 6.2.1
 _ZN32QScxmlDynamicScxmlServiceFactory16staticMetaObjectE@Base 6.2.1
 _ZN32QScxmlDynamicScxmlServiceFactory6invokeEP18QScxmlStateMachine@Base 6.2.1
 _ZN32QScxmlDynamicScxmlServiceFactoryC1ERKN23QScxmlExecutableContent10InvokeInfoERK5QListIiERKS4_INS0_13ParameterInfoEEP7QObject@Base 6.2.1
 _ZN32QScxmlDynamicScxmlServiceFactoryC2ERKN23QScxmlExecutableContent10InvokeInfoERK5QListIiERKS4_INS0_13ParameterInfoEEP7QObject@Base 6.2.1
 _ZNK11QScxmlError11descriptionEv@Base 6.2.1
 _ZNK11QScxmlError4lineEv@Base 6.2.1
 _ZNK11QScxmlError6columnEv@Base 6.2.1
 _ZNK11QScxmlError7isValidEv@Base 6.2.1
 _ZNK11QScxmlError8fileNameEv@Base 6.2.1
 _ZNK11QScxmlError8toStringEv@Base 6.2.1
 _ZNK11QScxmlEvent10originTypeEv@Base 6.2.1
 _ZNK11QScxmlEvent12errorMessageEv@Base 6.2.1
 _ZNK11QScxmlEvent12isErrorEventEv@Base 6.2.1
 _ZNK11QScxmlEvent4dataEv@Base 6.2.1
 _ZNK11QScxmlEvent4nameEv@Base 6.2.1
 _ZNK11QScxmlEvent5delayEv@Base 6.2.1
 _ZNK11QScxmlEvent6originEv@Base 6.2.1
 _ZNK11QScxmlEvent6sendIdEv@Base 6.2.1
 _ZNK11QScxmlEvent8invokeIdEv@Base 6.2.1
 _ZNK11QScxmlEvent9eventTypeEv@Base 6.2.1
 _ZNK11QScxmlEvent9scxmlTypeEv@Base 6.2.1
 _ZNK14QScxmlCompiler6errorsEv@Base 6.2.1
 _ZNK14QScxmlCompiler6loaderEv@Base 6.2.1
 _ZNK14QScxmlCompiler8fileNameEv@Base 6.2.1
 _ZNK14QScxmlInternal18GeneratedTableData11foreachInfoEi@Base 6.2.1
 _ZNK14QScxmlInternal18GeneratedTableData12initialSetupEv@Base 6.2.1
 _ZNK14QScxmlInternal18GeneratedTableData12instructionsEv@Base 6.2.1
 _ZNK14QScxmlInternal18GeneratedTableData13evaluatorInfoEi@Base 6.2.1
 _ZNK14QScxmlInternal18GeneratedTableData14assignmentInfoEi@Base 6.2.1
 _ZNK14QScxmlInternal18GeneratedTableData14serviceFactoryEi@Base 6.2.1
 _ZNK14QScxmlInternal18GeneratedTableData17stateMachineTableEv@Base 6.2.1
 _ZNK14QScxmlInternal18GeneratedTableData4nameEv@Base 6.2.1
 _ZNK14QScxmlInternal18GeneratedTableData6stringEi@Base 6.2.1
 _ZNK14QScxmlInternal18GeneratedTableData9dataNamesEPi@Base 6.2.1
 _ZNK15QScxmlDataModel10metaObjectEv@Base 6.2.1
 _ZNK15QScxmlDataModel12stateMachineEv@Base 6.2.1
 _ZNK18QScxmlCppDataModel10metaObjectEv@Base 6.2.1
 _ZNK18QScxmlCppDataModel10scxmlEventEv@Base 6.2.1
 _ZNK18QScxmlCppDataModel13scxmlPropertyERK7QString@Base 6.2.1
 _ZNK18QScxmlCppDataModel16hasScxmlPropertyERK7QString@Base 6.2.1
 _ZNK18QScxmlCppDataModel7inStateERK7QString@Base 6.2.1
 _ZNK18QScxmlScxmlService10metaObjectEv@Base 6.2.1
 _ZNK18QScxmlScxmlService12stateMachineEv@Base 6.2.1
 _ZNK18QScxmlScxmlService2idEv@Base 6.2.1
 _ZNK18QScxmlScxmlService4nameEv@Base 6.2.1
 _ZNK18QScxmlStateMachine10metaObjectEv@Base 6.2.1
 _ZNK18QScxmlStateMachine10stateNamesEb@Base 6.2.1
 _ZNK18QScxmlStateMachine11parseErrorsEv@Base 6.2.1
 _ZNK18QScxmlStateMachine13isInitializedEv@Base 6.2.1
 _ZNK18QScxmlStateMachine15invokedServicesEv@Base 6.2.1
 _ZNK18QScxmlStateMachine16activeStateNamesEb@Base 6.2.1
 _ZNK18QScxmlStateMachine19bindableInitializedEv@Base 6.2.1
 _ZNK18QScxmlStateMachine20isDispatchableTargetERK7QString@Base 6.2.1
 _ZNK18QScxmlStateMachine4nameEv@Base 6.2.1
 _ZNK18QScxmlStateMachine6loaderEv@Base 6.2.1
 _ZNK18QScxmlStateMachine8isActiveERK7QString@Base 6.2.1
 _ZNK18QScxmlStateMachine8isActiveEi@Base 6.2.1
 _ZNK18QScxmlStateMachine9dataModelEv@Base 6.2.1
 _ZNK18QScxmlStateMachine9isInvokedEv@Base 6.2.1
 _ZNK18QScxmlStateMachine9isRunningEv@Base 6.2.1
 _ZNK18QScxmlStateMachine9sessionIdEv@Base 6.2.1
 _ZNK18QScxmlStateMachine9tableDataEv@Base 6.2.1
 _ZNK19QScxmlNullDataModel10metaObjectEv@Base 6.2.1
 _ZNK19QScxmlNullDataModel13scxmlPropertyERK7QString@Base 6.2.1
 _ZNK19QScxmlNullDataModel16hasScxmlPropertyERK7QString@Base 6.2.1
 _ZNK21QScxmlCompilerPrivate11ParserState10validChildENS0_4KindE@Base 6.2.1
 _ZNK21QScxmlCompilerPrivate11hasPreviousEv@Base 6.2.1
 _ZNK21QScxmlCompilerPrivate11xmlLocationEv@Base 6.2.1
 _ZNK21QScxmlCompilerPrivate13currentParentEv@Base 6.2.1
 _ZNK21QScxmlCompilerPrivate13scxmlDocumentEv@Base 6.2.1
 _ZNK21QScxmlCompilerPrivate20instantiateDataModelEP18QScxmlStateMachine@Base 6.2.1
 _ZNK21QScxmlCompilerPrivate23instantiateStateMachineEv@Base 6.2.1
 _ZNK21QScxmlCompilerPrivate6errorsEv@Base 6.2.1
 _ZNK21QScxmlCompilerPrivate6loaderEv@Base 6.2.1
 _ZNK21QScxmlCompilerPrivate8fileNameEv@Base 6.2.1
 _ZNK21QScxmlDataModelPlugin10metaObjectEv@Base 6.2.1
 _ZNK21QScxmlDataModelPlugin20createScxmlDataModelEv@Base 6.2.1
 _ZNK22QScxmlInvokableService10metaObjectEv@Base 6.2.1
 _ZNK22QScxmlInvokableService18parentStateMachineEv@Base 6.2.1
 _ZNK22QScxmlStateMachineInfo10metaObjectEv@Base 6.2.1
 _ZNK22QScxmlStateMachineInfo11stateParentEi@Base 6.2.1
 _ZNK22QScxmlStateMachineInfo12stateMachineEv@Base 6.2.1
 _ZNK22QScxmlStateMachineInfo13configurationEv@Base 6.2.1
 _ZNK22QScxmlStateMachineInfo13stateChildrenEi@Base 6.2.1
 _ZNK22QScxmlStateMachineInfo14allTransitionsEv@Base 6.2.1
 _ZNK22QScxmlStateMachineInfo14transitionTypeEi@Base 6.2.1
 _ZNK22QScxmlStateMachineInfo16transitionEventsEi@Base 6.2.1
 _ZNK22QScxmlStateMachineInfo16transitionSourceEi@Base 6.2.1
 _ZNK22QScxmlStateMachineInfo17initialTransitionEi@Base 6.2.1
 _ZNK22QScxmlStateMachineInfo17transitionTargetsEi@Base 6.2.1
 _ZNK22QScxmlStateMachineInfo9allStatesEv@Base 6.2.1
 _ZNK22QScxmlStateMachineInfo9stateNameEi@Base 6.2.1
 _ZNK22QScxmlStateMachineInfo9stateTypeEi@Base 6.2.1
 _ZNK25QScxmlStateMachinePrivate10stateNamesERKSt6vectorIiSaIiEE@Base 6.2.1
 _ZNK25QScxmlStateMachinePrivate12isDescendantEii@Base 6.2.1
 _ZNK25QScxmlStateMachinePrivate13hasDescendantERKNS_10OrderedSetEi@Base 6.2.1
 _ZNK25QScxmlStateMachinePrivate13historyStatesEi@Base 6.2.1
 _ZNK25QScxmlStateMachinePrivate14allDescendantsERKNS_10OrderedSetEi@Base 6.2.1
 _ZNK25QScxmlStateMachinePrivate14computeExitSetERKNS_10OrderedSetERS0_@Base 6.2.1
 _ZNK25QScxmlStateMachinePrivate14getChildStatesERKN23QScxmlExecutableContent10StateTable5StateE@Base 6.2.1
 _ZNK25QScxmlStateMachinePrivate14isInFinalStateEi@Base 6.2.1
 _ZNK25QScxmlStateMachinePrivate15computeEntrySetERKNS_10OrderedSetEPS0_S3_PNS_14HistoryContentE@Base 6.2.1
 _ZNK25QScxmlStateMachinePrivate16allInFinalStatesERKSt6vectorIiSaIiEE@Base 6.2.1
 _ZNK25QScxmlStateMachinePrivate17selectTransitionsERNS_10OrderedSetERKSt6vectorIiSaIiEEP11QScxmlEvent@Base 6.2.1
 _ZNK25QScxmlStateMachinePrivate17someInFinalStatesERKSt6vectorIiSaIiEE@Base 6.2.1
 _ZNK25QScxmlStateMachinePrivate18getProperAncestorsEPSt6vectorIiSaIiEEii@Base 6.2.1
 _ZNK25QScxmlStateMachinePrivate19getTransitionDomainEi@Base 6.2.1
 _ZNK25QScxmlStateMachinePrivate24addAncestorStatesToEnterEiiPNS_10OrderedSetES1_PNS_14HistoryContentE@Base 6.2.1
 _ZNK25QScxmlStateMachinePrivate24getEffectiveTargetStatesEPNS_10OrderedSetEi@Base 6.2.1
 _ZNK25QScxmlStateMachinePrivate26addDescendantStatesToEnterEiPNS_10OrderedSetES1_PNS_14HistoryContentE@Base 6.2.1
 _ZNK25QScxmlStateMachinePrivate28removeConflictingTransitionsEPNS_10OrderedSetE@Base 6.2.1
 _ZNK25QScxmlStateMachinePrivate8findLCCAEONS_10OrderedSetE@Base 6.2.1
 _ZNK25QScxmlStateMachinePrivate9nameMatchERKN23QScxmlExecutableContent10StateTable5ArrayEP11QScxmlEvent@Base 6.2.1
 _ZNK29QScxmlInvokableServiceFactory10invokeInfoEv@Base 6.2.1
 _ZNK29QScxmlInvokableServiceFactory10metaObjectEv@Base 6.2.1
 _ZNK29QScxmlInvokableServiceFactory10parametersEv@Base 6.2.1
 _ZNK29QScxmlInvokableServiceFactory5namesEv@Base 6.2.1
 _ZNK31QScxmlStaticScxmlServiceFactory10metaObjectEv@Base 6.2.1
 _ZNK32QScxmlDynamicScxmlServiceFactory10metaObjectEv@Base 6.2.1
 (optional=templinst)_ZNSt6vectorIN25QScxmlStateMachinePrivate14InvokedServiceESaIS1_EE14_M_fill_insertEN9__gnu_cxx17__normal_iteratorIPS1_S3_EEmRKS1_@Base 6.2.1
 (optional=templinst)_ZNSt6vectorIP29QScxmlInvokableServiceFactorySaIS1_EE14_M_fill_insertEN9__gnu_cxx17__normal_iteratorIPS1_S3_EEmRKS1_@Base 6.2.1
 (optional=templinst)_ZNSt6vectorISt4pairIiP11QScxmlEventESaIS3_EE17_M_realloc_insertIJS3_EEEvN9__gnu_cxx17__normal_iteratorIPS3_S5_EEDpOT_@Base 6.2.1
 (optional=templinst)_ZNSt6vectorISt4pairIiP11QScxmlEventESaIS3_EE8_M_eraseEN9__gnu_cxx17__normal_iteratorIPS3_S5_EE@Base 6.2.1
 (optional=templinst)_ZNSt6vectorIbSaIbEE14_M_fill_insertESt13_Bit_iteratormb@Base 6.2.1
 (optional=templinst)_ZNSt6vectorIiSaIiEE17_M_realloc_insertIJRKiEEEvN9__gnu_cxx17__normal_iteratorIPiS1_EEDpOT_@Base 6.2.1
 (optional=templinst)_ZNSt6vectorIiSaIiEE7reserveEm@Base 6.2.1
 (optional=templinst)_ZNSt6vectorIiSaIiEE8_M_eraseEN9__gnu_cxx17__normal_iteratorIPiS1_EE@Base 6.2.1
 (optional=templinst)_ZNSt8_Rb_treeI7QStringSt4pairIKS0_8QVariantESt10_Select1stIS4_ESt4lessIS0_ESaIS4_EE24_M_get_insert_unique_posERS2_@Base 6.2.1
 (optional=templinst)_ZNSt8_Rb_treeI7QStringSt4pairIKS0_8QVariantESt10_Select1stIS4_ESt4lessIS0_ESaIS4_EE29_M_get_insert_hint_unique_posESt23_Rb_tree_const_iteratorIS4_ERS2_@Base 6.2.1
 (optional=templinst)_ZNSt8_Rb_treeI7QStringSt4pairIKS0_N21QScxmlCompilerPrivate11ParserState4KindEESt10_Select1stIS6_ESt4lessIS0_ESaIS6_EE24_M_get_insert_unique_posERS2_@Base 6.2.1
 (optional=templinst)_ZNSt8_Rb_treeI7QStringSt4pairIKS0_N21QScxmlCompilerPrivate11ParserState4KindEESt10_Select1stIS6_ESt4lessIS0_ESaIS6_EE29_M_get_insert_hint_unique_posESt23_Rb_tree_const_iteratorIS6_ERS2_@Base 6.2.1
 (optional=templinst)_ZNSt8_Rb_treeI7QStringSt4pairIKS0_iESt10_Select1stIS3_ESt4lessIS0_ESaIS3_EE24_M_get_insert_unique_posERS2_@Base 6.2.1
 (optional=templinst)_ZNSt8_Rb_treeI7QStringSt4pairIKS0_iESt10_Select1stIS3_ESt4lessIS0_ESaIS3_EE29_M_get_insert_hint_unique_posESt23_Rb_tree_const_iteratorIS3_ERS2_@Base 6.2.1
 _ZTI15QScxmlDataModel@Base 6.2.1
 _ZTI15QScxmlTableData@Base 6.2.1
 _ZTI18QScxmlCppDataModel@Base 6.2.1
 _ZTI18QScxmlScxmlService@Base 6.2.1
 _ZTI18QScxmlStateMachine@Base 6.2.1
 _ZTI19QScxmlNullDataModel@Base 6.2.1
 _ZTI21QScxmlDataModelPlugin@Base 6.2.1
 _ZTI22QScxmlInvokableService@Base 6.2.1
 _ZTI22QScxmlStateMachineInfo@Base 6.2.1
 _ZTI25QScxmlCppDataModelPrivate@Base 6.2.1
 _ZTI25QScxmlStateMachinePrivate@Base 6.2.1
 _ZTI29QScxmlInvokableServiceFactory@Base 6.2.1
 _ZTI31QScxmlStaticScxmlServiceFactory@Base 6.2.1
 _ZTI32QScxmlDynamicScxmlServiceFactory@Base 6.2.1
 _ZTIN13DocumentModel11NodeVisitorE@Base 6.2.1
 _ZTIN14QScxmlCompiler6LoaderE@Base 6.2.1
 _ZTIN14QScxmlInternal18GeneratedTableDataE@Base 6.2.1
 _ZTIN15QScxmlDataModel15ForeachLoopBodyE@Base 6.2.1
 _ZTIN21QScxmlCompilerPrivate13DefaultLoaderE@Base 6.2.1
 _ZTIZN9QMetaType17registerConverterI5QListI11QScxmlErrorE9QIterableI13QMetaSequenceEN9QtPrivate33QSequentialIterableConvertFunctorIS3_EEEEbT1_EUlPKvPvE_@Base 6.2.1
 _ZTIZN9QMetaType17registerConverterI5QListIP22QScxmlInvokableServiceE9QIterableI13QMetaSequenceEN9QtPrivate33QSequentialIterableConvertFunctorIS4_EEEEbT1_EUlPKvPvE_@Base 6.2.1
 _ZTIZN9QMetaType17registerConverterI5QListIiE9QIterableI13QMetaSequenceEN9QtPrivate33QSequentialIterableConvertFunctorIS2_EEEEbT1_EUlPKvPvE_@Base 6.2.1
 _ZTIZN9QMetaType19registerMutableViewI5QListI11QScxmlErrorE9QIterableI13QMetaSequenceEN9QtPrivate37QSequentialIterableMutableViewFunctorIS3_EEEEbT1_EUlPvSB_E_@Base 6.2.1
 _ZTIZN9QMetaType19registerMutableViewI5QListIP22QScxmlInvokableServiceE9QIterableI13QMetaSequenceEN9QtPrivate37QSequentialIterableMutableViewFunctorIS4_EEEEbT1_EUlPvSC_E_@Base 6.2.1
 _ZTIZN9QMetaType19registerMutableViewI5QListIiE9QIterableI13QMetaSequenceEN9QtPrivate37QSequentialIterableMutableViewFunctorIS2_EEEEbT1_EUlPvSA_E_@Base 6.2.1
 _ZTS15QScxmlDataModel@Base 6.2.1
 _ZTS15QScxmlTableData@Base 6.2.1
 _ZTS18QScxmlCppDataModel@Base 6.2.1
 _ZTS18QScxmlScxmlService@Base 6.2.1
 _ZTS18QScxmlStateMachine@Base 6.2.1
 _ZTS19QScxmlNullDataModel@Base 6.2.1
 _ZTS21QScxmlDataModelPlugin@Base 6.2.1
 _ZTS22QScxmlInvokableService@Base 6.2.1
 _ZTS22QScxmlStateMachineInfo@Base 6.2.1
 _ZTS25QScxmlCppDataModelPrivate@Base 6.2.1
 _ZTS25QScxmlStateMachinePrivate@Base 6.2.1
 _ZTS29QScxmlInvokableServiceFactory@Base 6.2.1
 _ZTS31QScxmlStaticScxmlServiceFactory@Base 6.2.1
 _ZTS32QScxmlDynamicScxmlServiceFactory@Base 6.2.1
 _ZTSN13DocumentModel11NodeVisitorE@Base 6.2.1
 _ZTSN14QScxmlCompiler6LoaderE@Base 6.2.1
 _ZTSN14QScxmlInternal18GeneratedTableDataE@Base 6.2.1
 _ZTSN15QScxmlDataModel15ForeachLoopBodyE@Base 6.2.1
 _ZTSN21QScxmlCompilerPrivate13DefaultLoaderE@Base 6.2.1
 _ZTSZN9QMetaType17registerConverterI5QListI11QScxmlErrorE9QIterableI13QMetaSequenceEN9QtPrivate33QSequentialIterableConvertFunctorIS3_EEEEbT1_EUlPKvPvE_@Base 6.2.1
 _ZTSZN9QMetaType17registerConverterI5QListIP22QScxmlInvokableServiceE9QIterableI13QMetaSequenceEN9QtPrivate33QSequentialIterableConvertFunctorIS4_EEEEbT1_EUlPKvPvE_@Base 6.2.1
 _ZTSZN9QMetaType17registerConverterI5QListIiE9QIterableI13QMetaSequenceEN9QtPrivate33QSequentialIterableConvertFunctorIS2_EEEEbT1_EUlPKvPvE_@Base 6.2.1
 _ZTSZN9QMetaType19registerMutableViewI5QListI11QScxmlErrorE9QIterableI13QMetaSequenceEN9QtPrivate37QSequentialIterableMutableViewFunctorIS3_EEEEbT1_EUlPvSB_E_@Base 6.2.1
 _ZTSZN9QMetaType19registerMutableViewI5QListIP22QScxmlInvokableServiceE9QIterableI13QMetaSequenceEN9QtPrivate37QSequentialIterableMutableViewFunctorIS4_EEEEbT1_EUlPvSC_E_@Base 6.2.1
 _ZTSZN9QMetaType19registerMutableViewI5QListIiE9QIterableI13QMetaSequenceEN9QtPrivate37QSequentialIterableMutableViewFunctorIS2_EEEEbT1_EUlPvSA_E_@Base 6.2.1
 _ZTV15QScxmlDataModel@Base 6.2.1
 _ZTV15QScxmlTableData@Base 6.2.1
 _ZTV18QScxmlCppDataModel@Base 6.2.1
 _ZTV18QScxmlScxmlService@Base 6.2.1
 _ZTV18QScxmlStateMachine@Base 6.2.1
 _ZTV19QScxmlNullDataModel@Base 6.2.1
 _ZTV21QScxmlDataModelPlugin@Base 6.2.1
 _ZTV22QScxmlInvokableService@Base 6.2.1
 _ZTV22QScxmlStateMachineInfo@Base 6.2.1
 _ZTV25QScxmlCppDataModelPrivate@Base 6.2.1
 _ZTV25QScxmlStateMachinePrivate@Base 6.2.1
 _ZTV29QScxmlInvokableServiceFactory@Base 6.2.1
 _ZTV31QScxmlStaticScxmlServiceFactory@Base 6.2.1
 _ZTV32QScxmlDynamicScxmlServiceFactory@Base 6.2.1
 _ZTVN13DocumentModel11NodeVisitorE@Base 6.2.1
 _ZTVN14QScxmlCompiler6LoaderE@Base 6.2.1
 _ZTVN14QScxmlInternal18GeneratedTableDataE@Base 6.2.1
 _ZTVN15QScxmlDataModel15ForeachLoopBodyE@Base 6.2.1
 _ZTVN21QScxmlCompilerPrivate13DefaultLoaderE@Base 6.2.1
 (optional=templinst)_ZZN9QMetaType21registerConverterImplI5QListI11QScxmlErrorE9QIterableI13QMetaSequenceEEEbSt8functionIFbPKvPvEES_S_E10unregister@Base 6.2.1
 (optional=templinst)_ZZN9QMetaType21registerConverterImplI5QListIP22QScxmlInvokableServiceE9QIterableI13QMetaSequenceEEEbSt8functionIFbPKvPvEES_S_E10unregister@Base 6.2.1
 (optional=templinst)_ZZN9QMetaType21registerConverterImplI5QListIiE9QIterableI13QMetaSequenceEEEbSt8functionIFbPKvPvEES_S_E10unregister@Base 6.2.1
 (optional=templinst)_ZZN9QMetaType23registerMutableViewImplI5QListI11QScxmlErrorE9QIterableI13QMetaSequenceEEEbSt8functionIFbPvS8_EES_S_E10unregister@Base 6.2.1
 (optional=templinst)_ZZN9QMetaType23registerMutableViewImplI5QListIP22QScxmlInvokableServiceE9QIterableI13QMetaSequenceEEEbSt8functionIFbPvS9_EES_S_E10unregister@Base 6.2.1
 (optional=templinst)_ZZN9QMetaType23registerMutableViewImplI5QListIiE9QIterableI13QMetaSequenceEEEbSt8functionIFbPvS7_EES_S_E10unregister@Base 6.2.1
 (optional=templinst)_ZZN9QtPrivate16QMetaTypeForTypeI4QMapI7QString8QVariantEE10getCopyCtrEvENUlPKNS_18QMetaTypeInterfaceEPvPKvE_4_FUNES8_S9_SB_@Base 6.2.1
 (optional=templinst)_ZZN9QtPrivate16QMetaTypeForTypeI4QMapI7QString8QVariantEE10getMoveCtrEvENUlPKNS_18QMetaTypeInterfaceEPvS9_E_4_FUNES8_S9_S9_@Base 6.2.1
 (optional=templinst)_ZZN9QtPrivate16QMetaTypeForTypeI4QMapI7QString8QVariantEE13getDefaultCtrEvENUlPKNS_18QMetaTypeInterfaceEPvE_4_FUNES8_S9_@Base 6.2.1
 (optional=templinst)_ZZN9QtPrivate16QMetaTypeForTypeI4QMapI7QString8QVariantEE7getDtorEvENUlPKNS_18QMetaTypeInterfaceEPvE_4_FUNES8_S9_@Base 6.2.1
 (optional=templinst)_ZZN9QtPrivate16QMetaTypeForTypeI5QListI7QStringEE10getCopyCtrEvENUlPKNS_18QMetaTypeInterfaceEPvPKvE_4_FUNES7_S8_SA_@Base 6.2.1
 (optional=templinst)_ZZN9QtPrivate16QMetaTypeForTypeI5QListI7QStringEE10getMoveCtrEvENUlPKNS_18QMetaTypeInterfaceEPvS8_E_4_FUNES7_S8_S8_@Base 6.2.1
 (optional=templinst)_ZZN9QtPrivate16QMetaTypeForTypeI5QListI7QStringEE13getDefaultCtrEvENUlPKNS_18QMetaTypeInterfaceEPvE_4_FUNES7_S8_@Base 6.2.1
 (optional=templinst)_ZZN9QtPrivate16QMetaTypeForTypeI5QListI7QStringEE7getDtorEvENUlPKNS_18QMetaTypeInterfaceEPvE_4_FUNES7_S8_@Base 6.2.1
 (optional=templinst)_ZZN9QtPrivate16QMetaTypeForTypeI7QStringE10getCopyCtrEvENUlPKNS_18QMetaTypeInterfaceEPvPKvE_4_FUNES5_S6_S8_@Base 6.2.1
 (optional=templinst)_ZZN9QtPrivate16QMetaTypeForTypeI7QStringE10getMoveCtrEvENUlPKNS_18QMetaTypeInterfaceEPvS6_E_4_FUNES5_S6_S6_@Base 6.2.1
 (optional=templinst)_ZZN9QtPrivate16QMetaTypeForTypeI7QStringE13getDefaultCtrEvENUlPKNS_18QMetaTypeInterfaceEPvE_4_FUNES5_S6_@Base 6.2.1
 (optional=templinst)_ZZN9QtPrivate16QMetaTypeForTypeI7QStringE7getDtorEvENUlPKNS_18QMetaTypeInterfaceEPvE_4_FUNES5_S6_@Base 6.2.1
 (optional=templinst)_ZZN9QtPrivate16QMetaTypeForTypeI8QVariantE10getCopyCtrEvENUlPKNS_18QMetaTypeInterfaceEPvPKvE_4_FUNES5_S6_S8_@Base 6.2.1
 (optional=templinst)_ZZN9QtPrivate16QMetaTypeForTypeI8QVariantE10getMoveCtrEvENUlPKNS_18QMetaTypeInterfaceEPvS6_E_4_FUNES5_S6_S6_@Base 6.2.1
 (optional=templinst)_ZZN9QtPrivate16QMetaTypeForTypeI8QVariantE13getDefaultCtrEvENUlPKNS_18QMetaTypeInterfaceEPvE_4_FUNES5_S6_@Base 6.2.1
 (optional=templinst)_ZZN9QtPrivate16QMetaTypeForTypeI8QVariantE7getDtorEvENUlPKNS_18QMetaTypeInterfaceEPvE_4_FUNES5_S6_@Base 6.2.1
 (optional=templinst)_ZZN9QtPrivate16QMetaTypeForTypeIbE10getCopyCtrEvENUlPKNS_18QMetaTypeInterfaceEPvPKvE_4_FUNES4_S5_S7_@Base 6.2.1
 (optional=templinst)_ZZN9QtPrivate16QMetaTypeForTypeIbE10getMoveCtrEvENUlPKNS_18QMetaTypeInterfaceEPvS5_E_4_FUNES4_S5_S5_@Base 6.2.1
 (optional=templinst)_ZZN9QtPrivate16QMetaTypeForTypeIbE13getDefaultCtrEvENUlPKNS_18QMetaTypeInterfaceEPvE_4_FUNES4_S5_@Base 6.2.1
 (optional=templinst)_ZZN9QtPrivate16QMetaTypeForTypeIiE10getCopyCtrEvENUlPKNS_18QMetaTypeInterfaceEPvPKvE_4_FUNES4_S5_S7_@Base 6.2.1
 (optional=templinst)_ZZN9QtPrivate16QMetaTypeForTypeIiE10getMoveCtrEvENUlPKNS_18QMetaTypeInterfaceEPvS5_E_4_FUNES4_S5_S5_@Base 6.2.1
 (optional=templinst)_ZZN9QtPrivate16QMetaTypeForTypeIiE13getDefaultCtrEvENUlPKNS_18QMetaTypeInterfaceEPvE_4_FUNES4_S5_@Base 6.2.1
