# SymbolsHelper-Confirmed: 6.6.1 amd64
libQt6StateMachine.so.6 libqt6statemachine6 #MINVER#
* Build-Depends-Package: qt6-scxml-dev
 Qt_6@Qt_6 6.6.1
 Qt_6_PRIVATE_API@Qt_6_PRIVATE_API 6.6.1
 _ZGVZN9QMetaType21registerConverterImplI5QListIP14QAbstractStateE9QIterableI13QMetaSequenceEEEbSt8functionIFbPKvPvEES_S_E10unregister@Qt_6 6.6.1
 _ZGVZN9QMetaType23registerMutableViewImplI5QListIP14QAbstractStateE9QIterableI13QMetaSequenceEEEbSt8functionIFbPvS9_EES_S_E10unregister@Qt_6 6.6.1
 _ZN11QFinalState11qt_metacallEN11QMetaObject4CallEiPPv@Qt_6 6.6.1
 _ZN11QFinalState11qt_metacastEPKc@Qt_6 6.6.1
 _ZN11QFinalState16staticMetaObjectE@Qt_6 6.6.1
 _ZN11QFinalState5eventEP6QEvent@Qt_6 6.6.1
 _ZN11QFinalState6onExitEP6QEvent@Qt_6 6.6.1
 _ZN11QFinalState7onEntryEP6QEvent@Qt_6 6.6.1
 _ZN11QFinalStateC1EP6QState@Qt_6 6.6.1
 _ZN11QFinalStateC1ER18QFinalStatePrivateP6QState@Qt_6_PRIVATE_API 6.6.1
 _ZN11QFinalStateC2EP6QState@Qt_6 6.6.1
 _ZN11QFinalStateC2ER18QFinalStatePrivateP6QState@Qt_6_PRIVATE_API 6.6.1
 _ZN11QFinalStateD0Ev@Qt_6 6.6.1
 _ZN11QFinalStateD1Ev@Qt_6 6.6.1
 _ZN11QFinalStateD2Ev@Qt_6 6.6.1
 _ZN13QHistoryState11qt_metacallEN11QMetaObject4CallEiPPv@Qt_6 6.6.1
 _ZN13QHistoryState11qt_metacastEPKc@Qt_6 6.6.1
 _ZN13QHistoryState14setHistoryTypeENS_11HistoryTypeE@Qt_6 6.6.1
 _ZN13QHistoryState15setDefaultStateEP14QAbstractState@Qt_6 6.6.1
 _ZN13QHistoryState16staticMetaObjectE@Qt_6 6.6.1
 _ZN13QHistoryState18historyTypeChangedENS_14QPrivateSignalE@Qt_6 6.6.1
 _ZN13QHistoryState19bindableHistoryTypeEv@Qt_6 6.6.1
 _ZN13QHistoryState19defaultStateChangedENS_14QPrivateSignalE@Qt_6 6.6.1
 _ZN13QHistoryState20setDefaultTransitionEP19QAbstractTransition@Qt_6 6.6.1
 _ZN13QHistoryState24defaultTransitionChangedENS_14QPrivateSignalE@Qt_6 6.6.1
 _ZN13QHistoryState25bindableDefaultTransitionEv@Qt_6 6.6.1
 _ZN13QHistoryState5eventEP6QEvent@Qt_6 6.6.1
 _ZN13QHistoryState6onExitEP6QEvent@Qt_6 6.6.1
 _ZN13QHistoryState7onEntryEP6QEvent@Qt_6 6.6.1
 _ZN13QHistoryStateC1ENS_11HistoryTypeEP6QState@Qt_6 6.6.1
 _ZN13QHistoryStateC1EP6QState@Qt_6 6.6.1
 _ZN13QHistoryStateC2ENS_11HistoryTypeEP6QState@Qt_6 6.6.1
 _ZN13QHistoryStateC2EP6QState@Qt_6 6.6.1
 _ZN13QHistoryStateD0Ev@Qt_6 6.6.1
 _ZN13QHistoryStateD1Ev@Qt_6 6.6.1
 _ZN13QHistoryStateD2Ev@Qt_6 6.6.1
 _ZN13QMetaSequence12MetaSequenceI5QListIP14QAbstractStateEE5valueE@Qt_6 6.6.1
 _ZN13QStateMachine10clearErrorEv@Qt_6 6.6.1
 _ZN13QStateMachine10setRunningEb@Qt_6 6.6.1
 _ZN13QStateMachine11SignalEventC1EP7QObjectiRK5QListI8QVariantE@Qt_6 6.6.1
 _ZN13QStateMachine11SignalEventC2EP7QObjectiRK5QListI8QVariantE@Qt_6 6.6.1
 _ZN13QStateMachine11SignalEventD0Ev@Qt_6 6.6.1
 _ZN13QStateMachine11SignalEventD1Ev@Qt_6 6.6.1
 _ZN13QStateMachine11SignalEventD2Ev@Qt_6 6.6.1
 _ZN13QStateMachine11eventFilterEP7QObjectP6QEvent@Qt_6 6.6.1
 _ZN13QStateMachine11qt_metacallEN11QMetaObject4CallEiPPv@Qt_6 6.6.1
 _ZN13QStateMachine11qt_metacastEPKc@Qt_6 6.6.1
 _ZN13QStateMachine11removeStateEP14QAbstractState@Qt_6 6.6.1
 _ZN13QStateMachine11setAnimatedEb@Qt_6 6.6.1
 _ZN13QStateMachine12WrappedEventC1EP7QObjectP6QEvent@Qt_6 6.6.1
 _ZN13QStateMachine12WrappedEventC2EP7QObjectP6QEvent@Qt_6 6.6.1
 _ZN13QStateMachine12WrappedEventD0Ev@Qt_6 6.6.1
 _ZN13QStateMachine12WrappedEventD1Ev@Qt_6 6.6.1
 _ZN13QStateMachine12WrappedEventD2Ev@Qt_6 6.6.1
 _ZN13QStateMachine12endMicrostepEP6QEvent@Qt_6 6.6.1
 _ZN13QStateMachine14beginMicrostepEP6QEvent@Qt_6 6.6.1
 _ZN13QStateMachine14runningChangedEb@Qt_6 6.6.1
 _ZN13QStateMachine16bindableAnimatedEv@Qt_6 6.6.1
 _ZN13QStateMachine16postDelayedEventEP6QEventi@Qt_6 6.6.1
 _ZN13QStateMachine16staticMetaObjectE@Qt_6 6.6.1
 _ZN13QStateMachine18cancelDelayedEventEi@Qt_6 6.6.1
 _ZN13QStateMachine19addDefaultAnimationEP18QAbstractAnimation@Qt_6 6.6.1
 _ZN13QStateMachine20endSelectTransitionsEP6QEvent@Qt_6 6.6.1
 _ZN13QStateMachine22beginSelectTransitionsEP6QEvent@Qt_6 6.6.1
 _ZN13QStateMachine22removeDefaultAnimationEP18QAbstractAnimation@Qt_6 6.6.1
 _ZN13QStateMachine22setGlobalRestorePolicyEN6QState13RestorePolicyE@Qt_6 6.6.1
 _ZN13QStateMachine27bindableGlobalRestorePolicyEv@Qt_6 6.6.1
 _ZN13QStateMachine4stopEv@Qt_6 6.6.1
 _ZN13QStateMachine5eventEP6QEvent@Qt_6 6.6.1
 _ZN13QStateMachine5startEv@Qt_6 6.6.1
 _ZN13QStateMachine6onExitEP6QEvent@Qt_6 6.6.1
 _ZN13QStateMachine7onEntryEP6QEvent@Qt_6 6.6.1
 _ZN13QStateMachine7startedENS_14QPrivateSignalE@Qt_6 6.6.1
 _ZN13QStateMachine7stoppedENS_14QPrivateSignalE@Qt_6 6.6.1
 _ZN13QStateMachine8addStateEP14QAbstractState@Qt_6 6.6.1
 _ZN13QStateMachine9postEventEP6QEventNS_13EventPriorityE@Qt_6 6.6.1
 _ZN13QStateMachineC1EN6QState9ChildModeEP7QObject@Qt_6 6.6.1
 _ZN13QStateMachineC1EP7QObject@Qt_6 6.6.1
 _ZN13QStateMachineC1ER20QStateMachinePrivateP7QObject@Qt_6_PRIVATE_API 6.6.1
 _ZN13QStateMachineC2EN6QState9ChildModeEP7QObject@Qt_6 6.6.1
 _ZN13QStateMachineC2EP7QObject@Qt_6 6.6.1
 _ZN13QStateMachineC2ER20QStateMachinePrivateP7QObject@Qt_6_PRIVATE_API 6.6.1
 _ZN13QStateMachineD0Ev@Qt_6 6.6.1
 _ZN13QStateMachineD1Ev@Qt_6 6.6.1
 _ZN13QStateMachineD2Ev@Qt_6 6.6.1
 _ZN13QStatePrivate12emitFinishedEv@Qt_6_PRIVATE_API 6.6.1
 _ZN13QStatePrivate22emitPropertiesAssignedEv@Qt_6_PRIVATE_API 6.6.1
 _ZN13QStatePrivateC1Ev@Qt_6_PRIVATE_API 6.6.1
 _ZN13QStatePrivateC2Ev@Qt_6_PRIVATE_API 6.6.1
 _ZN13QStatePrivateD0Ev@Qt_6_PRIVATE_API 6.6.1
 _ZN13QStatePrivateD1Ev@Qt_6_PRIVATE_API 6.6.1
 _ZN13QStatePrivateD2Ev@Qt_6_PRIVATE_API 6.6.1
 _ZN14QAbstractState11qt_metacallEN11QMetaObject4CallEiPPv@Qt_6 6.6.1
 _ZN14QAbstractState11qt_metacastEPKc@Qt_6 6.6.1
 _ZN14QAbstractState13activeChangedEb@Qt_6 6.6.1
 _ZN14QAbstractState14bindableActiveEv@Qt_6 6.6.1
 _ZN14QAbstractState16staticMetaObjectE@Qt_6 6.6.1
 _ZN14QAbstractState5eventEP6QEvent@Qt_6 6.6.1
 _ZN14QAbstractState6exitedENS_14QPrivateSignalE@Qt_6 6.6.1
 _ZN14QAbstractState7enteredENS_14QPrivateSignalE@Qt_6 6.6.1
 _ZN14QAbstractStateC1EP6QState@Qt_6 6.6.1
 _ZN14QAbstractStateC1ER21QAbstractStatePrivateP6QState@Qt_6_PRIVATE_API 6.6.1
 _ZN14QAbstractStateC2EP6QState@Qt_6 6.6.1
 _ZN14QAbstractStateC2ER21QAbstractStatePrivateP6QState@Qt_6_PRIVATE_API 6.6.1
 _ZN14QAbstractStateD0Ev@Qt_6 6.6.1
 _ZN14QAbstractStateD1Ev@Qt_6 6.6.1
 _ZN14QAbstractStateD2Ev@Qt_6 6.6.1
 _ZN16QEventTransition11qt_metacallEN11QMetaObject4CallEiPPv@Qt_6 6.6.1
 _ZN16QEventTransition11qt_metacastEPKc@Qt_6 6.6.1
 _ZN16QEventTransition12onTransitionEP6QEvent@Qt_6 6.6.1
 _ZN16QEventTransition12setEventTypeEN6QEvent4TypeE@Qt_6 6.6.1
 _ZN16QEventTransition14setEventSourceEP7QObject@Qt_6 6.6.1
 _ZN16QEventTransition16staticMetaObjectE@Qt_6 6.6.1
 _ZN16QEventTransition17bindableEventTypeEv@Qt_6 6.6.1
 _ZN16QEventTransition19bindableEventSourceEv@Qt_6 6.6.1
 _ZN16QEventTransition5eventEP6QEvent@Qt_6 6.6.1
 _ZN16QEventTransition9eventTestEP6QEvent@Qt_6 6.6.1
 _ZN16QEventTransitionC1EP6QState@Qt_6 6.6.1
 _ZN16QEventTransitionC1EP7QObjectN6QEvent4TypeEP6QState@Qt_6 6.6.1
 _ZN16QEventTransitionC1ER23QEventTransitionPrivateP6QState@Qt_6_PRIVATE_API 6.6.1
 _ZN16QEventTransitionC1ER23QEventTransitionPrivateP7QObjectN6QEvent4TypeEP6QState@Qt_6_PRIVATE_API 6.6.1
 _ZN16QEventTransitionC2EP6QState@Qt_6 6.6.1
 _ZN16QEventTransitionC2EP7QObjectN6QEvent4TypeEP6QState@Qt_6 6.6.1
 _ZN16QEventTransitionC2ER23QEventTransitionPrivateP6QState@Qt_6_PRIVATE_API 6.6.1
 _ZN16QEventTransitionC2ER23QEventTransitionPrivateP7QObjectN6QEvent4TypeEP6QState@Qt_6_PRIVATE_API 6.6.1
 _ZN16QEventTransitionD0Ev@Qt_6 6.6.1
 _ZN16QEventTransitionD1Ev@Qt_6 6.6.1
 _ZN16QEventTransitionD2Ev@Qt_6 6.6.1
 _ZN17QSignalTransition11qt_metacallEN11QMetaObject4CallEiPPv@Qt_6 6.6.1
 _ZN17QSignalTransition11qt_metacastEPKc@Qt_6 6.6.1
 _ZN17QSignalTransition12onTransitionEP6QEvent@Qt_6 6.6.1
 _ZN17QSignalTransition13signalChangedENS_14QPrivateSignalE@Qt_6 6.6.1
 _ZN17QSignalTransition14bindableSignalEv@Qt_6 6.6.1
 _ZN17QSignalTransition15setSenderObjectEPK7QObject@Qt_6 6.6.1
 _ZN17QSignalTransition16staticMetaObjectE@Qt_6 6.6.1
 _ZN17QSignalTransition19senderObjectChangedENS_14QPrivateSignalE@Qt_6 6.6.1
 _ZN17QSignalTransition20bindableSenderObjectEv@Qt_6 6.6.1
 _ZN17QSignalTransition5eventEP6QEvent@Qt_6 6.6.1
 _ZN17QSignalTransition9eventTestEP6QEvent@Qt_6 6.6.1
 _ZN17QSignalTransition9setSignalERK10QByteArray@Qt_6 6.6.1
 _ZN17QSignalTransitionC1EP6QState@Qt_6 6.6.1
 _ZN17QSignalTransitionC1EPK7QObjectPKcP6QState@Qt_6 6.6.1
 _ZN17QSignalTransitionC2EP6QState@Qt_6 6.6.1
 _ZN17QSignalTransitionC2EPK7QObjectPKcP6QState@Qt_6 6.6.1
 _ZN17QSignalTransitionD0Ev@Qt_6 6.6.1
 _ZN17QSignalTransitionD1Ev@Qt_6 6.6.1
 _ZN17QSignalTransitionD2Ev@Qt_6 6.6.1
 _ZN18QFinalStatePrivateC1Ev@Qt_6_PRIVATE_API 6.6.1
 _ZN18QFinalStatePrivateC2Ev@Qt_6_PRIVATE_API 6.6.1
 _ZN18QFinalStatePrivateD0Ev@Qt_6_PRIVATE_API 6.6.1
 _ZN18QFinalStatePrivateD1Ev@Qt_6_PRIVATE_API 6.6.1
 _ZN18QFinalStatePrivateD2Ev@Qt_6_PRIVATE_API 6.6.1
 _ZN19QAbstractTransition11qt_metacallEN11QMetaObject4CallEiPPv@Qt_6 6.6.1
 _ZN19QAbstractTransition11qt_metacastEPKc@Qt_6 6.6.1
 _ZN19QAbstractTransition12addAnimationEP18QAbstractAnimation@Qt_6 6.6.1
 _ZN19QAbstractTransition14setTargetStateEP14QAbstractState@Qt_6 6.6.1
 _ZN19QAbstractTransition15removeAnimationEP18QAbstractAnimation@Qt_6 6.6.1
 _ZN19QAbstractTransition15setTargetStatesERK5QListIP14QAbstractStateE@Qt_6 6.6.1
 _ZN19QAbstractTransition16staticMetaObjectE@Qt_6 6.6.1
 _ZN19QAbstractTransition17setTransitionTypeENS_14TransitionTypeE@Qt_6 6.6.1
 _ZN19QAbstractTransition18targetStateChangedENS_14QPrivateSignalE@Qt_6 6.6.1
 _ZN19QAbstractTransition19targetStatesChangedENS_14QPrivateSignalE@Qt_6 6.6.1
 _ZN19QAbstractTransition22bindableTransitionTypeEv@Qt_6 6.6.1
 _ZN19QAbstractTransition5eventEP6QEvent@Qt_6 6.6.1
 _ZN19QAbstractTransition9triggeredENS_14QPrivateSignalE@Qt_6 6.6.1
 _ZN19QAbstractTransitionC1EP6QState@Qt_6 6.6.1
 _ZN19QAbstractTransitionC1ER26QAbstractTransitionPrivateP6QState@Qt_6_PRIVATE_API 6.6.1
 _ZN19QAbstractTransitionC2EP6QState@Qt_6 6.6.1
 _ZN19QAbstractTransitionC2ER26QAbstractTransitionPrivateP6QState@Qt_6_PRIVATE_API 6.6.1
 _ZN19QAbstractTransitionD0Ev@Qt_6 6.6.1
 _ZN19QAbstractTransitionD1Ev@Qt_6 6.6.1
 _ZN19QAbstractTransitionD2Ev@Qt_6 6.6.1
 _ZN19QKeyEventTransition11bindableKeyEv@Qt_6 6.6.1
 _ZN19QKeyEventTransition11qt_metacallEN11QMetaObject4CallEiPPv@Qt_6 6.6.1
 _ZN19QKeyEventTransition11qt_metacastEPKc@Qt_6 6.6.1
 _ZN19QKeyEventTransition12onTransitionEP6QEvent@Qt_6 6.6.1
 _ZN19QKeyEventTransition15setModifierMaskE6QFlagsIN2Qt16KeyboardModifierEE@Qt_6 6.6.1
 _ZN19QKeyEventTransition16staticMetaObjectE@Qt_6 6.6.1
 _ZN19QKeyEventTransition20bindableModifierMaskEv@Qt_6 6.6.1
 _ZN19QKeyEventTransition6setKeyEi@Qt_6 6.6.1
 _ZN19QKeyEventTransition9eventTestEP6QEvent@Qt_6 6.6.1
 _ZN19QKeyEventTransitionC1EP6QState@Qt_6 6.6.1
 _ZN19QKeyEventTransitionC1EP7QObjectN6QEvent4TypeEiP6QState@Qt_6 6.6.1
 _ZN19QKeyEventTransitionC2EP6QState@Qt_6 6.6.1
 _ZN19QKeyEventTransitionC2EP7QObjectN6QEvent4TypeEiP6QState@Qt_6 6.6.1
 _ZN19QKeyEventTransitionD0Ev@Qt_6 6.6.1
 _ZN19QKeyEventTransitionD1Ev@Qt_6 6.6.1
 _ZN19QKeyEventTransitionD2Ev@Qt_6 6.6.1
 _ZN20QStateMachinePrivate10_q_processEv@Qt_6_PRIVATE_API 6.6.1
 _ZN20QStateMachinePrivate10exitStatesEP6QEventRK5QListIP14QAbstractStateERK5QHashIS4_S2_I19QPropertyAssignmentEE@Qt_6_PRIVATE_API 6.6.1
 _ZN20QStateMachinePrivate10isParallelEPK14QAbstractState@Qt_6_PRIVATE_API 6.6.1
 _ZN20QStateMachinePrivate11enterStatesEP6QEventRK5QListIP14QAbstractStateES7_RK4QSetIS4_ER5QHashIS4_S2_I19QPropertyAssignmentEERKS2_IP18QAbstractAnimationE@Qt_6_PRIVATE_API 6.6.1
 _ZN20QStateMachinePrivate11noMicrostepEv@Qt_6_PRIVATE_API 6.6.1
 _ZN20QStateMachinePrivate11startupHookEv@Qt_6_PRIVATE_API 6.6.1
 _ZN20QStateMachinePrivate12clearHistoryEv@Qt_6_PRIVATE_API 6.6.1
 _ZN20QStateMachinePrivate12endMacrostepEb@Qt_6_PRIVATE_API 6.6.1
 _ZN20QStateMachinePrivate12toFinalStateEP14QAbstractState@Qt_6_PRIVATE_API 6.6.1
 _ZN20QStateMachinePrivate13processEventsENS_19EventProcessingModeE@Qt_6_PRIVATE_API 6.6.1
 _ZN20QStateMachinePrivate14beginMacrostepEv@Qt_6_PRIVATE_API 6.6.1
 _ZN20QStateMachinePrivate14computeExitSetERK5QListIP19QAbstractTransitionEP16CalculationCache@Qt_6_PRIVATE_API 6.6.1
 _ZN20QStateMachinePrivate14findErrorStateEP14QAbstractState@Qt_6_PRIVATE_API 6.6.1
 _ZN20QStateMachinePrivate14toHistoryStateEP14QAbstractState@Qt_6_PRIVATE_API 6.6.1
 _ZN20QStateMachinePrivate15computeEntrySetERK5QListIP19QAbstractTransitionER4QSetIP14QAbstractStateEP16CalculationCache@Qt_6_PRIVATE_API 6.6.1
 _ZN20QStateMachinePrivate15exitInterpreterEv@Qt_6_PRIVATE_API 6.6.1
 _ZN20QStateMachinePrivate15toStandardStateEP14QAbstractState@Qt_6_PRIVATE_API 6.6.1
 _ZN20QStateMachinePrivate15toStandardStateEPK14QAbstractState@Qt_6_PRIVATE_API 6.6.1
 _ZN20QStateMachinePrivate17emitStateFinishedEP6QStateP11QFinalState@Qt_6_PRIVATE_API 6.6.1
 _ZN20QStateMachinePrivate17postExternalEventEP6QEvent@Qt_6_PRIVATE_API 6.6.1
 _ZN20QStateMachinePrivate17postInternalEventEP6QEvent@Qt_6_PRIVATE_API 6.6.1
 _ZN20QStateMachinePrivate17selectTransitionsEP6QEventP16CalculationCache@Qt_6_PRIVATE_API 6.6.1
 _ZN20QStateMachinePrivate17stateExitLessThanEP14QAbstractStateS1_@Qt_6_PRIVATE_API 6.6.1
 _ZN20QStateMachinePrivate18registerRestorableEP14QAbstractStateP7QObjectRK10QByteArrayRK8QVariant@Qt_6_PRIVATE_API 6.6.1
 _ZN20QStateMachinePrivate18registerTransitionEP19QAbstractTransition@Qt_6_PRIVATE_API 6.6.1
 _ZN20QStateMachinePrivate18stateEntryLessThanEP14QAbstractStateS1_@Qt_6_PRIVATE_API 6.6.1
 _ZN20QStateMachinePrivate19getTransitionDomainEP19QAbstractTransitionRK5QListIP14QAbstractStateEP16CalculationCache@Qt_6_PRIVATE_API 6.6.1
 _ZN20QStateMachinePrivate19handleFilteredEventEP7QObjectP6QEvent@Qt_6_PRIVATE_API 6.6.1
 _ZN20QStateMachinePrivate19initializeAnimationEP18QAbstractAnimationRK19QPropertyAssignment@Qt_6_PRIVATE_API 6.6.1
 _ZN20QStateMachinePrivate19registerTransitionsEP14QAbstractState@Qt_6_PRIVATE_API 6.6.1
 _ZN20QStateMachinePrivate20_q_animationFinishedEv@Qt_6_PRIVATE_API 6.6.1
 _ZN20QStateMachinePrivate20dequeueExternalEventEv@Qt_6_PRIVATE_API 6.6.1
 _ZN20QStateMachinePrivate20dequeueInternalEventEv@Qt_6_PRIVATE_API 6.6.1
 _ZN20QStateMachinePrivate20initializeAnimationsEP14QAbstractStateRK5QListIP18QAbstractAnimationERKS2_IS1_ER5QHashIS1_S2_I19QPropertyAssignmentEE@Qt_6_PRIVATE_API 6.6.1
 _ZN20QStateMachinePrivate20unregisterTransitionEP19QAbstractTransition@Qt_6_PRIVATE_API 6.6.1
 _ZN20QStateMachinePrivate21unregisterRestorablesERK5QListIP14QAbstractStateEP7QObjectRK10QByteArray@Qt_6_PRIVATE_API 6.6.1
 _ZN20QStateMachinePrivate22cancelAllDelayedEventsEv@Qt_6_PRIVATE_API 6.6.1
 _ZN20QStateMachinePrivate22handleTransitionSignalEP7QObjectiPPv@Qt_6_PRIVATE_API 6.6.1
 _ZN20QStateMachinePrivate22processedPendingEventsEb@Qt_6_PRIVATE_API 6.6.1
 _ZN20QStateMachinePrivate23maybeRegisterTransitionEP19QAbstractTransition@Qt_6_PRIVATE_API 6.6.1
 _ZN20QStateMachinePrivate23registerEventTransitionEP16QEventTransition@Qt_6_PRIVATE_API 6.6.1
 _ZN20QStateMachinePrivate24FreeListDefaultConstants5SizesE@Qt_6_PRIVATE_API 6.6.1
 _ZN20QStateMachinePrivate24_q_killDelayedEventTimerEii@Qt_6_PRIVATE_API 6.6.1
 _ZN20QStateMachinePrivate24addAncestorStatesToEnterEP14QAbstractStateS1_R4QSetIS1_ES4_@Qt_6_PRIVATE_API 6.6.1
 _ZN20QStateMachinePrivate24computeExitSet_UnorderedEP19QAbstractTransitionP16CalculationCache@Qt_6_PRIVATE_API 6.6.1
 _ZN20QStateMachinePrivate24computeExitSet_UnorderedERK5QListIP19QAbstractTransitionEP16CalculationCache@Qt_6_PRIVATE_API 6.6.1
 _ZN20QStateMachinePrivate24executeTransitionContentEP6QEventRK5QListIP19QAbstractTransitionE@Qt_6_PRIVATE_API 6.6.1
 _ZN20QStateMachinePrivate24registerSignalTransitionEP17QSignalTransition@Qt_6_PRIVATE_API 6.6.1
 _ZN20QStateMachinePrivate24unregisterAllTransitionsEv@Qt_6_PRIVATE_API 6.6.1
 _ZN20QStateMachinePrivate25_q_startDelayedEventTimerEii@Qt_6_PRIVATE_API 6.6.1
 _ZN20QStateMachinePrivate25isExternalEventQueueEmptyEv@Qt_6_PRIVATE_API 6.6.1
 _ZN20QStateMachinePrivate25isInternalEventQueueEmptyEv@Qt_6_PRIVATE_API 6.6.1
 _ZN20QStateMachinePrivate25terminateActiveAnimationsEP14QAbstractStateRK5QHashIS1_5QListI19QPropertyAssignmentEE@Qt_6_PRIVATE_API 6.6.1
 _ZN20QStateMachinePrivate25unregisterEventTransitionEP16QEventTransition@Qt_6_PRIVATE_API 6.6.1
 _ZN20QStateMachinePrivate26addDescendantStatesToEnterEP14QAbstractStateR4QSetIS1_ES4_@Qt_6_PRIVATE_API 6.6.1
 _ZN20QStateMachinePrivate26unregisterSignalTransitionEP17QSignalTransition@Qt_6_PRIVATE_API 6.6.1
 _ZN20QStateMachinePrivate28maybeRegisterEventTransitionEP16QEventTransition@Qt_6_PRIVATE_API 6.6.1
 _ZN20QStateMachinePrivate28removeConflictingTransitionsER5QListIP19QAbstractTransitionEP16CalculationCache@Qt_6_PRIVATE_API 6.6.1
 _ZN20QStateMachinePrivate28transitionStateEntryLessThanEP19QAbstractTransitionS1_@Qt_6_PRIVATE_API 6.6.1
 _ZN20QStateMachinePrivate29maybeRegisterSignalTransitionEP17QSignalTransition@Qt_6_PRIVATE_API 6.6.1
 _ZN20QStateMachinePrivate38registerMultiThreadedSignalTransitionsEv@Qt_6_PRIVATE_API 6.6.1
 _ZN20QStateMachinePrivate7findLCAERK5QListIP14QAbstractStateEb@Qt_6_PRIVATE_API 6.6.1
 _ZN20QStateMachinePrivate7isFinalEPK14QAbstractState@Qt_6_PRIVATE_API 6.6.1
 _ZN20QStateMachinePrivate8_q_startEv@Qt_6_PRIVATE_API 6.6.1
 _ZN20QStateMachinePrivate8findLCCAERK5QListIP14QAbstractStateE@Qt_6_PRIVATE_API 6.6.1
 _ZN20QStateMachinePrivate8setErrorEN13QStateMachine5ErrorEP14QAbstractState@Qt_6_PRIVATE_API 6.6.1
 _ZN20QStateMachinePrivate9goToStateEP14QAbstractState@Qt_6_PRIVATE_API 6.6.1
 _ZN20QStateMachinePrivate9microstepEP6QEventRK5QListIP19QAbstractTransitionEP16CalculationCache@Qt_6_PRIVATE_API 6.6.1
 _ZN20QStateMachinePrivateC1Ev@Qt_6_PRIVATE_API 6.6.1
 _ZN20QStateMachinePrivateC2Ev@Qt_6_PRIVATE_API 6.6.1
 _ZN20QStateMachinePrivateD0Ev@Qt_6_PRIVATE_API 6.6.1
 _ZN20QStateMachinePrivateD1Ev@Qt_6_PRIVATE_API 6.6.1
 _ZN20QStateMachinePrivateD2Ev@Qt_6_PRIVATE_API 6.6.1
 _ZN21QMouseEventTransition11qt_metacallEN11QMetaObject4CallEiPPv@Qt_6 6.6.1
 _ZN21QMouseEventTransition11qt_metacastEPKc@Qt_6 6.6.1
 _ZN21QMouseEventTransition12onTransitionEP6QEvent@Qt_6 6.6.1
 _ZN21QMouseEventTransition14bindableButtonEv@Qt_6 6.6.1
 _ZN21QMouseEventTransition14setHitTestPathERK12QPainterPath@Qt_6 6.6.1
 _ZN21QMouseEventTransition15setModifierMaskE6QFlagsIN2Qt16KeyboardModifierEE@Qt_6 6.6.1
 _ZN21QMouseEventTransition16staticMetaObjectE@Qt_6 6.6.1
 _ZN21QMouseEventTransition20bindableModifierMaskEv@Qt_6 6.6.1
 _ZN21QMouseEventTransition9eventTestEP6QEvent@Qt_6 6.6.1
 _ZN21QMouseEventTransition9setButtonEN2Qt11MouseButtonE@Qt_6 6.6.1
 _ZN21QMouseEventTransitionC1EP6QState@Qt_6 6.6.1
 _ZN21QMouseEventTransitionC1EP7QObjectN6QEvent4TypeEN2Qt11MouseButtonEP6QState@Qt_6 6.6.1
 _ZN21QMouseEventTransitionC2EP6QState@Qt_6 6.6.1
 _ZN21QMouseEventTransitionC2EP7QObjectN6QEvent4TypeEN2Qt11MouseButtonEP6QState@Qt_6 6.6.1
 _ZN21QMouseEventTransitionD0Ev@Qt_6 6.6.1
 _ZN21QMouseEventTransitionD1Ev@Qt_6 6.6.1
 _ZN21QMouseEventTransitionD2Ev@Qt_6 6.6.1
 _ZN23QEventTransitionPrivate10unregisterEv@Qt_6_PRIVATE_API 6.6.1
 _ZN23QEventTransitionPrivate13maybeRegisterEv@Qt_6_PRIVATE_API 6.6.1
 _ZN23QEventTransitionPrivateD0Ev@Qt_6_PRIVATE_API 6.6.1
 _ZN23QEventTransitionPrivateD1Ev@Qt_6_PRIVATE_API 6.6.1
 _ZN23QEventTransitionPrivateD2Ev@Qt_6_PRIVATE_API 6.6.1
 _ZN26QAbstractTransitionPrivate13callEventTestEP6QEvent@Qt_6_PRIVATE_API 6.6.1
 _ZN26QAbstractTransitionPrivate13emitTriggeredEv@Qt_6_PRIVATE_API 6.6.1
 _ZN26QAbstractTransitionPrivate16callOnTransitionEP6QEvent@Qt_6_PRIVATE_API 6.6.1
 _ZN6QState11qt_metacallEN11QMetaObject4CallEiPPv@Qt_6 6.6.1
 _ZN6QState11qt_metacastEPKc@Qt_6 6.6.1
 _ZN6QState12setChildModeENS_9ChildModeE@Qt_6 6.6.1
 _ZN6QState13addTransitionEP14QAbstractState@Qt_6 6.6.1
 _ZN6QState13addTransitionEP19QAbstractTransition@Qt_6 6.6.1
 _ZN6QState13addTransitionEPK7QObjectPKcP14QAbstractState@Qt_6 6.6.1
 _ZN6QState13setErrorStateEP14QAbstractState@Qt_6 6.6.1
 _ZN6QState14assignPropertyEP7QObjectPKcRK8QVariant@Qt_6 6.6.1
 _ZN6QState15setInitialStateEP14QAbstractState@Qt_6 6.6.1
 _ZN6QState16childModeChangedENS_14QPrivateSignalE@Qt_6 6.6.1
 _ZN6QState16removeTransitionEP19QAbstractTransition@Qt_6 6.6.1
 _ZN6QState16staticMetaObjectE@Qt_6 6.6.1
 _ZN6QState17bindableChildModeEv@Qt_6 6.6.1
 _ZN6QState17errorStateChangedENS_14QPrivateSignalE@Qt_6 6.6.1
 _ZN6QState18bindableErrorStateEv@Qt_6 6.6.1
 _ZN6QState18propertiesAssignedENS_14QPrivateSignalE@Qt_6 6.6.1
 _ZN6QState19initialStateChangedENS_14QPrivateSignalE@Qt_6 6.6.1
 _ZN6QState20bindableInitialStateEv@Qt_6 6.6.1
 _ZN6QState5eventEP6QEvent@Qt_6 6.6.1
 _ZN6QState6onExitEP6QEvent@Qt_6 6.6.1
 _ZN6QState7onEntryEP6QEvent@Qt_6 6.6.1
 _ZN6QState8finishedENS_14QPrivateSignalE@Qt_6 6.6.1
 _ZN6QStateC1ENS_9ChildModeEPS_@Qt_6 6.6.1
 _ZN6QStateC1EPS_@Qt_6 6.6.1
 _ZN6QStateC1ER13QStatePrivatePS_@Qt_6_PRIVATE_API 6.6.1
 _ZN6QStateC2ENS_9ChildModeEPS_@Qt_6 6.6.1
 _ZN6QStateC2EPS_@Qt_6 6.6.1
 _ZN6QStateC2ER13QStatePrivatePS_@Qt_6_PRIVATE_API 6.6.1
 _ZN6QStateD0Ev@Qt_6 6.6.1
 _ZN6QStateD1Ev@Qt_6 6.6.1
 _ZN6QStateD2Ev@Qt_6 6.6.1
 _ZNK11QFinalState10metaObjectEv@Qt_6 6.6.1
 _ZNK13QHistoryState10metaObjectEv@Qt_6 6.6.1
 _ZNK13QHistoryState11historyTypeEv@Qt_6 6.6.1
 _ZNK13QHistoryState12defaultStateEv@Qt_6 6.6.1
 _ZNK13QHistoryState17defaultTransitionEv@Qt_6 6.6.1
 _ZNK13QStateMachine10isAnimatedEv@Qt_6 6.6.1
 _ZNK13QStateMachine10metaObjectEv@Qt_6 6.6.1
 _ZNK13QStateMachine11errorStringEv@Qt_6 6.6.1
 _ZNK13QStateMachine13configurationEv@Qt_6 6.6.1
 _ZNK13QStateMachine17defaultAnimationsEv@Qt_6 6.6.1
 _ZNK13QStateMachine19bindableErrorStringEv@Qt_6 6.6.1
 _ZNK13QStateMachine19globalRestorePolicyEv@Qt_6 6.6.1
 _ZNK13QStateMachine5errorEv@Qt_6 6.6.1
 _ZNK13QStateMachine9isRunningEv@Qt_6 6.6.1
 _ZNK13QStatePrivate11childStatesEv@Qt_6_PRIVATE_API 6.6.1
 _ZNK13QStatePrivate11transitionsEv@Qt_6_PRIVATE_API 6.6.1
 _ZNK13QStatePrivate13historyStatesEv@Qt_6_PRIVATE_API 6.6.1
 _ZNK14QAbstractState10metaObjectEv@Qt_6 6.6.1
 _ZNK14QAbstractState11parentStateEv@Qt_6 6.6.1
 _ZNK14QAbstractState6activeEv@Qt_6 6.6.1
 _ZNK14QAbstractState7machineEv@Qt_6 6.6.1
 _ZNK16QEventTransition10metaObjectEv@Qt_6 6.6.1
 _ZNK16QEventTransition11eventSourceEv@Qt_6 6.6.1
 _ZNK16QEventTransition9eventTypeEv@Qt_6 6.6.1
 _ZNK17QSignalTransition10metaObjectEv@Qt_6 6.6.1
 _ZNK17QSignalTransition12senderObjectEv@Qt_6 6.6.1
 _ZNK17QSignalTransition6signalEv@Qt_6 6.6.1
 _ZNK19QAbstractTransition10animationsEv@Qt_6 6.6.1
 _ZNK19QAbstractTransition10metaObjectEv@Qt_6 6.6.1
 _ZNK19QAbstractTransition11sourceStateEv@Qt_6 6.6.1
 _ZNK19QAbstractTransition11targetStateEv@Qt_6 6.6.1
 _ZNK19QAbstractTransition12targetStatesEv@Qt_6 6.6.1
 _ZNK19QAbstractTransition14transitionTypeEv@Qt_6 6.6.1
 _ZNK19QAbstractTransition7machineEv@Qt_6 6.6.1
 _ZNK19QKeyEventTransition10metaObjectEv@Qt_6 6.6.1
 _ZNK19QKeyEventTransition12modifierMaskEv@Qt_6 6.6.1
 _ZNK19QKeyEventTransition3keyEv@Qt_6 6.6.1
 _ZNK20QStateMachinePrivate10isCompoundEPK14QAbstractState@Qt_6_PRIVATE_API 6.6.1
 _ZNK20QStateMachinePrivate13hasRestorableEP14QAbstractStateP7QObjectRK10QByteArray@Qt_6_PRIVATE_API 6.6.1
 _ZNK20QStateMachinePrivate14isInFinalStateEP14QAbstractState@Qt_6_PRIVATE_API 6.6.1
 _ZNK20QStateMachinePrivate16selectAnimationsERK5QListIP19QAbstractTransitionE@Qt_6_PRIVATE_API 6.6.1
 _ZNK20QStateMachinePrivate23createInitialTransitionEv@Qt_6_PRIVATE_API 6.6.1
 _ZNK20QStateMachinePrivate23savedValueForRestorableERK5QListIP14QAbstractStateEP7QObjectRK10QByteArray@Qt_6_PRIVATE_API 6.6.1
 _ZNK20QStateMachinePrivate25computePendingRestorablesERK5QListIP14QAbstractStateE@Qt_6_PRIVATE_API 6.6.1
 _ZNK20QStateMachinePrivate25restorablesToPropertyListERK5QHashINS_12RestorableIdE8QVariantE@Qt_6_PRIVATE_API 6.6.1
 _ZNK20QStateMachinePrivate26computePropertyAssignmentsERK5QListIP14QAbstractStateER5QHashINS_12RestorableIdE8QVariantE@Qt_6_PRIVATE_API 6.6.1
 _ZNK20QStateMachinePrivate8isAtomicEPK14QAbstractState@Qt_6_PRIVATE_API 6.6.1
 _ZNK20QStateMachinePrivate9rootStateEv@Qt_6_PRIVATE_API 6.6.1
 _ZNK21QMouseEventTransition10metaObjectEv@Qt_6 6.6.1
 _ZNK21QMouseEventTransition11hitTestPathEv@Qt_6 6.6.1
 _ZNK21QMouseEventTransition12modifierMaskEv@Qt_6 6.6.1
 _ZNK21QMouseEventTransition6buttonEv@Qt_6 6.6.1
 _ZNK26QAbstractTransitionPrivate11sourceStateEv@Qt_6_PRIVATE_API 6.6.1
 _ZNK26QAbstractTransitionPrivate7machineEv@Qt_6_PRIVATE_API 6.6.1
 _ZNK6QState10errorStateEv@Qt_6 6.6.1
 _ZNK6QState10metaObjectEv@Qt_6 6.6.1
 _ZNK6QState11transitionsEv@Qt_6 6.6.1
 _ZNK6QState12initialStateEv@Qt_6 6.6.1
 _ZNK6QState9childModeEv@Qt_6 6.6.1
 _ZTI11QFinalState@Qt_6 6.6.1
 _ZTI13QHistoryState@Qt_6 6.6.1
 _ZTI13QStateMachine@Qt_6 6.6.1
 _ZTI13QStatePrivate@Qt_6_PRIVATE_API 6.6.1
 _ZTI14QAbstractState@Qt_6 6.6.1
 _ZTI16QEventTransition@Qt_6 6.6.1
 _ZTI17QSignalTransition@Qt_6 6.6.1
 _ZTI18QFinalStatePrivate@Qt_6_PRIVATE_API 6.6.1
 _ZTI19QAbstractTransition@Qt_6 6.6.1
 _ZTI19QKeyEventTransition@Qt_6 6.6.1
 _ZTI20QStateMachinePrivate@Qt_6_PRIVATE_API 6.6.1
 _ZTI21QMouseEventTransition@Qt_6 6.6.1
 _ZTI23QEventTransitionPrivate@Qt_6_PRIVATE_API 6.6.1
 _ZTI26QAbstractTransitionPrivate@Qt_6_PRIVATE_API 6.6.1
 _ZTI6QState@Qt_6 6.6.1
 _ZTIN13QStateMachine11SignalEventE@Qt_6 6.6.1
 _ZTIN13QStateMachine12WrappedEventE@Qt_6 6.6.1
 _ZTIZN9QMetaType17registerConverterI5QListIP14QAbstractStateE9QIterableI13QMetaSequenceEN9QtPrivate33QSequentialIterableConvertFunctorIS4_EEEEbT1_EUlPKvPvE_@Qt_6 6.6.1
 _ZTIZN9QMetaType19registerMutableViewI5QListIP14QAbstractStateE9QIterableI13QMetaSequenceEN9QtPrivate37QSequentialIterableMutableViewFunctorIS4_EEEEbT1_EUlPvSC_E_@Qt_6 6.6.1
 _ZTS11QFinalState@Qt_6 6.6.1
 _ZTS13QHistoryState@Qt_6 6.6.1
 _ZTS13QStateMachine@Qt_6 6.6.1
 _ZTS13QStatePrivate@Qt_6_PRIVATE_API 6.6.1
 _ZTS14QAbstractState@Qt_6 6.6.1
 _ZTS16QEventTransition@Qt_6 6.6.1
 _ZTS17QSignalTransition@Qt_6 6.6.1
 _ZTS18QFinalStatePrivate@Qt_6_PRIVATE_API 6.6.1
 _ZTS19QAbstractTransition@Qt_6 6.6.1
 _ZTS19QKeyEventTransition@Qt_6 6.6.1
 _ZTS20QStateMachinePrivate@Qt_6_PRIVATE_API 6.6.1
 _ZTS21QMouseEventTransition@Qt_6 6.6.1
 _ZTS23QEventTransitionPrivate@Qt_6_PRIVATE_API 6.6.1
 _ZTS26QAbstractTransitionPrivate@Qt_6_PRIVATE_API 6.6.1
 _ZTS6QState@Qt_6 6.6.1
 _ZTSN13QStateMachine11SignalEventE@Qt_6 6.6.1
 _ZTSN13QStateMachine12WrappedEventE@Qt_6 6.6.1
 _ZTSZN9QMetaType17registerConverterI5QListIP14QAbstractStateE9QIterableI13QMetaSequenceEN9QtPrivate33QSequentialIterableConvertFunctorIS4_EEEEbT1_EUlPKvPvE_@Qt_6 6.6.1
 _ZTSZN9QMetaType19registerMutableViewI5QListIP14QAbstractStateE9QIterableI13QMetaSequenceEN9QtPrivate37QSequentialIterableMutableViewFunctorIS4_EEEEbT1_EUlPvSC_E_@Qt_6 6.6.1
 _ZTV11QFinalState@Qt_6 6.6.1
 _ZTV13QHistoryState@Qt_6 6.6.1
 _ZTV13QStateMachine@Qt_6 6.6.1
 _ZTV13QStatePrivate@Qt_6_PRIVATE_API 6.6.1
 _ZTV14QAbstractState@Qt_6 6.6.1
 _ZTV16QEventTransition@Qt_6 6.6.1
 _ZTV17QSignalTransition@Qt_6 6.6.1
 _ZTV18QFinalStatePrivate@Qt_6_PRIVATE_API 6.6.1
 _ZTV19QAbstractTransition@Qt_6 6.6.1
 _ZTV19QKeyEventTransition@Qt_6 6.6.1
 _ZTV20QStateMachinePrivate@Qt_6_PRIVATE_API 6.6.1
 _ZTV21QMouseEventTransition@Qt_6 6.6.1
 _ZTV23QEventTransitionPrivate@Qt_6_PRIVATE_API 6.6.1
 _ZTV26QAbstractTransitionPrivate@Qt_6_PRIVATE_API 6.6.1
 _ZTV6QState@Qt_6 6.6.1
 _ZTVN13QStateMachine11SignalEventE@Qt_6 6.6.1
 _ZTVN13QStateMachine12WrappedEventE@Qt_6 6.6.1
 (optional=templinst)_ZZN9QMetaType21registerConverterImplI5QListIP14QAbstractStateE9QIterableI13QMetaSequenceEEEbSt8functionIFbPKvPvEES_S_E10unregister@Qt_6 6.6.1
 (optional=templinst)_ZZN9QMetaType23registerMutableViewImplI5QListIP14QAbstractStateE9QIterableI13QMetaSequenceEEEbSt8functionIFbPvS9_EES_S_E10unregister@Qt_6 6.6.1
